; ModuleID = 'scalar.ll'
source_filename = "scalar.cpp"
target datalayout = "e-m:e-p270:32:32-p271:32:32-p272:64:64-i64:64-f80:128-n8:16:32:64-S128"
target triple = "x86_64-unknown-linux-gnu"

%"class.std::ios_base::Init" = type { i8 }
%"class.std::vector" = type { %"struct.std::_Vector_base" }
%"struct.std::_Vector_base" = type { %"struct.std::_Vector_base<double, std::allocator<double>>::_Vector_impl" }
%"struct.std::_Vector_base<double, std::allocator<double>>::_Vector_impl" = type { %"struct.std::_Vector_base<double, std::allocator<double>>::_Vector_impl_data" }
%"struct.std::_Vector_base<double, std::allocator<double>>::_Vector_impl_data" = type { double*, double*, double* }
%"class.std::vector.0" = type { %"struct.std::_Bvector_base" }
%"struct.std::_Bvector_base" = type { %"struct.std::_Bvector_base<std::allocator<bool>>::_Bvector_impl" }
%"struct.std::_Bvector_base<std::allocator<bool>>::_Bvector_impl" = type { %"struct.std::_Bvector_base<std::allocator<bool>>::_Bvector_impl_data" }
%"struct.std::_Bvector_base<std::allocator<bool>>::_Bvector_impl_data" = type { %"struct.std::_Bit_iterator", %"struct.std::_Bit_iterator", i64* }
%"struct.std::_Bit_iterator" = type { %"struct.std::_Bit_iterator_base.base", [4 x i8] }
%"struct.std::_Bit_iterator_base.base" = type <{ i64*, i32 }>
%"class.std::unordered_map" = type { %"class.std::_Hashtable" }
%"class.std::_Hashtable" = type { %"struct.std::__detail::_Hash_node_base"**, i64, %"struct.std::__detail::_Hash_node_base", i64, %"struct.std::__detail::_Prime_rehash_policy", %"struct.std::__detail::_Hash_node_base"* }
%"struct.std::__detail::_Hash_node_base" = type { %"struct.std::__detail::_Hash_node_base"* }
%"struct.std::__detail::_Prime_rehash_policy" = type { float, i64 }
%struct.UpdateOptData = type { %"class.std::unordered_map.9", %"class.std::unordered_map.29", %"class.std::unordered_set", %"class.std::set", %"class.std::set", %"class.std::vector.59", %"class.std::vector.59", %"class.std::vector" }
%"class.std::unordered_map.9" = type { %"class.std::_Hashtable.10" }
%"class.std::_Hashtable.10" = type { %"struct.std::__detail::_Hash_node_base"**, i64, %"struct.std::__detail::_Hash_node_base", i64, %"struct.std::__detail::_Prime_rehash_policy", %"struct.std::__detail::_Hash_node_base"* }
%"class.std::unordered_map.29" = type { %"class.std::_Hashtable.30" }
%"class.std::_Hashtable.30" = type { %"struct.std::__detail::_Hash_node_base"**, i64, %"struct.std::__detail::_Hash_node_base", i64, %"struct.std::__detail::_Prime_rehash_policy", %"struct.std::__detail::_Hash_node_base"* }
%"class.std::unordered_set" = type { %"class.std::_Hashtable.43" }
%"class.std::_Hashtable.43" = type { %"struct.std::__detail::_Hash_node_base"**, i64, %"struct.std::__detail::_Hash_node_base", i64, %"struct.std::__detail::_Prime_rehash_policy", %"struct.std::__detail::_Hash_node_base"* }
%"class.std::set" = type { %"class.std::_Rb_tree" }
%"class.std::_Rb_tree" = type { %"struct.std::_Rb_tree<unsigned int, unsigned int, std::_Identity<unsigned int>, std::less<unsigned int>>::_Rb_tree_impl" }
%"struct.std::_Rb_tree<unsigned int, unsigned int, std::_Identity<unsigned int>, std::less<unsigned int>>::_Rb_tree_impl" = type { %"struct.std::_Rb_tree_key_compare", %"struct.std::_Rb_tree_header" }
%"struct.std::_Rb_tree_key_compare" = type { %"struct.std::less" }
%"struct.std::less" = type { i8 }
%"struct.std::_Rb_tree_header" = type { %"struct.std::_Rb_tree_node_base", i64 }
%"struct.std::_Rb_tree_node_base" = type { i32, %"struct.std::_Rb_tree_node_base"*, %"struct.std::_Rb_tree_node_base"*, %"struct.std::_Rb_tree_node_base"* }
%"class.std::vector.59" = type { %"struct.std::_Vector_base.60" }
%"struct.std::_Vector_base.60" = type { %"struct.std::_Vector_base<std::vector<double>, std::allocator<std::vector<double>>>::_Vector_impl" }
%"struct.std::_Vector_base<std::vector<double>, std::allocator<std::vector<double>>>::_Vector_impl" = type { %"struct.std::_Vector_base<std::vector<double>, std::allocator<std::vector<double>>>::_Vector_impl_data" }
%"struct.std::_Vector_base<std::vector<double>, std::allocator<std::vector<double>>>::_Vector_impl_data" = type { %"class.std::vector"*, %"class.std::vector"*, %"class.std::vector"* }
%"class.std::unordered_map.64" = type { %"class.std::_Hashtable.65" }
%"class.std::_Hashtable.65" = type { %"struct.std::__detail::_Hash_node_base"**, i64, %"struct.std::__detail::_Hash_node_base", i64, %"struct.std::__detail::_Prime_rehash_policy", %"struct.std::__detail::_Hash_node_base"* }
%"class.std::unordered_map.84" = type { %"class.std::_Hashtable.85" }
%"class.std::_Hashtable.85" = type { %"struct.std::__detail::_Hash_node_base"**, i64, %"struct.std::__detail::_Hash_node_base", i64, %"struct.std::__detail::_Prime_rehash_policy", %"struct.std::__detail::_Hash_node_base"* }
%"class.std::unordered_map.98" = type { %"class.std::_Hashtable.99" }
%"class.std::_Hashtable.99" = type { %"struct.std::__detail::_Hash_node_base"**, i64, %"struct.std::__detail::_Hash_node_base", i64, %"struct.std::__detail::_Prime_rehash_policy", %"struct.std::__detail::_Hash_node_base"* }
%"class.std::basic_ostream" = type { i32 (...)**, %"class.std::basic_ios" }
%"class.std::basic_ios" = type { %"class.std::ios_base", %"class.std::basic_ostream"*, i8, i8, %"class.std::basic_streambuf"*, %"class.std::ctype"*, %"class.std::num_put"*, %"class.std::num_get"* }
%"class.std::ios_base" = type { i32 (...)**, i64, i64, i32, i32, i32, %"struct.std::ios_base::_Callback_list"*, %"struct.std::ios_base::_Words", [8 x %"struct.std::ios_base::_Words"], i32, %"struct.std::ios_base::_Words"*, %"class.std::locale" }
%"struct.std::ios_base::_Callback_list" = type { %"struct.std::ios_base::_Callback_list"*, void (i32, %"class.std::ios_base"*, i32)*, i32, i32 }
%"struct.std::ios_base::_Words" = type { i8*, i64 }
%"class.std::locale" = type { %"class.std::locale::_Impl"* }
%"class.std::locale::_Impl" = type { i32, %"class.std::locale::facet"**, i64, %"class.std::locale::facet"**, i8** }
%"class.std::locale::facet" = type <{ i32 (...)**, i32, [4 x i8] }>
%"class.std::basic_streambuf" = type { i32 (...)**, i8*, i8*, i8*, i8*, i8*, i8*, %"class.std::locale" }
%"class.std::ctype" = type <{ %"class.std::locale::facet.base", [4 x i8], %struct.__locale_struct*, i8, [7 x i8], i32*, i32*, i16*, i8, [256 x i8], [256 x i8], i8, [6 x i8] }>
%"class.std::locale::facet.base" = type <{ i32 (...)**, i32 }>
%struct.__locale_struct = type { [13 x %struct.__locale_data*], i16*, i32*, i32*, [13 x i8*] }
%struct.__locale_data = type opaque
%"class.std::num_put" = type { %"class.std::locale::facet.base", [4 x i8] }
%"class.std::num_get" = type { %"class.std::locale::facet.base", [4 x i8] }
%"class.std::unordered_map.127" = type { %"class.std::_Hashtable.128" }
%"class.std::_Hashtable.128" = type { %"struct.std::__detail::_Hash_node_base"**, i64, %"struct.std::__detail::_Hash_node_base", i64, %"struct.std::__detail::_Prime_rehash_policy", %"struct.std::__detail::_Hash_node_base"* }
%"class.std::unordered_set.148" = type { %"class.std::_Hashtable.149" }
%"class.std::_Hashtable.149" = type { %"struct.std::__detail::_Hash_node_base"**, i64, %"struct.std::__detail::_Hash_node_base", i64, %"struct.std::__detail::_Prime_rehash_policy", %"struct.std::__detail::_Hash_node_base"* }
%"class.std::unordered_map.174" = type { %"class.std::_Hashtable.175" }
%"class.std::_Hashtable.175" = type { %"struct.std::__detail::_Hash_node_base"**, i64, %"struct.std::__detail::_Hash_node_base", i64, %"struct.std::__detail::_Prime_rehash_policy", %"struct.std::__detail::_Hash_node_base"* }
%"class.std::unordered_map.248" = type { %"class.std::_Hashtable.249" }
%"class.std::_Hashtable.249" = type { %"struct.std::__detail::_Hash_node_base"**, i64, %"struct.std::__detail::_Hash_node_base", i64, %"struct.std::__detail::_Prime_rehash_policy", %"struct.std::__detail::_Hash_node_base"* }
%"struct.std::__detail::_Hash_node.291" = type { %"struct.std::__detail::_Hash_node_base", %"struct.std::__detail::_Hash_node_value.292" }
%"struct.std::__detail::_Hash_node_value.292" = type { %"struct.std::__detail::_Hash_node_value_base.293" }
%"struct.std::__detail::_Hash_node_value_base.293" = type { %"struct.__gnu_cxx::__aligned_buffer.294" }
%"struct.__gnu_cxx::__aligned_buffer.294" = type { %"union.std::aligned_storage<16, 8>::type" }
%"union.std::aligned_storage<16, 8>::type" = type { [16 x i8] }
%"struct.std::_Rb_tree_node" = type <{ %"struct.std::_Rb_tree_node_base", %"struct.__gnu_cxx::__aligned_membuf", [4 x i8] }>
%"struct.__gnu_cxx::__aligned_membuf" = type { [4 x i8] }
%"struct.std::__detail::_Hash_node.220" = type { %"struct.std::__detail::_Hash_node_base", %"struct.std::__detail::_Hash_node_value.221" }
%"struct.std::__detail::_Hash_node_value.221" = type { %"struct.std::__detail::_Hash_node_value_base.222" }
%"struct.std::__detail::_Hash_node_value_base.222" = type { %"struct.__gnu_cxx::__aligned_buffer.223" }
%"struct.__gnu_cxx::__aligned_buffer.223" = type { %"union.std::aligned_storage<8, 8>::type" }
%"union.std::aligned_storage<8, 8>::type" = type { [8 x i8] }
%"struct.std::__detail::_Hash_node.233" = type { %"struct.std::__detail::_Hash_node_base", %"struct.std::__detail::_Hash_node_value.234" }
%"struct.std::__detail::_Hash_node_value.234" = type { %"struct.std::__detail::_Hash_node_value_base.235" }
%"struct.std::__detail::_Hash_node_value_base.235" = type { %"struct.__gnu_cxx::__aligned_buffer.236" }
%"struct.__gnu_cxx::__aligned_buffer.236" = type { %"union.std::aligned_storage<16, 8>::type" }
%"struct.std::__detail::_Hash_node.210" = type { %"struct.std::__detail::_Hash_node_base", %"struct.std::__detail::_Hash_node_value.211" }
%"struct.std::__detail::_Hash_node_value.211" = type { %"struct.std::__detail::_Hash_node_value_base.212" }
%"struct.std::__detail::_Hash_node_value_base.212" = type { %"struct.__gnu_cxx::__aligned_buffer.213" }
%"struct.__gnu_cxx::__aligned_buffer.213" = type { %"union.std::aligned_storage<16, 8>::type" }
%"struct.std::__detail::_Hash_node.202" = type { %"struct.std::__detail::_Hash_node_base", %"struct.std::__detail::_Hash_node_value.203" }
%"struct.std::__detail::_Hash_node_value.203" = type { %"struct.std::__detail::_Hash_node_value_base.204" }
%"struct.std::__detail::_Hash_node_value_base.204" = type { %"struct.__gnu_cxx::__aligned_buffer.205" }
%"struct.__gnu_cxx::__aligned_buffer.205" = type { %"union.std::aligned_storage<344, 8>::type" }
%"union.std::aligned_storage<344, 8>::type" = type { [344 x i8] }
%struct.__va_list_tag = type { i32, i32, i8*, i8* }
%"struct.std::__detail::_Hash_node" = type { %"struct.std::__detail::_Hash_node_base", %"struct.std::__detail::_Hash_node_value" }
%"struct.std::__detail::_Hash_node_value" = type { %"struct.std::__detail::_Hash_node_value_base" }
%"struct.std::__detail::_Hash_node_value_base" = type { %"struct.__gnu_cxx::__aligned_buffer" }
%"struct.__gnu_cxx::__aligned_buffer" = type { %"union.std::aligned_storage<16, 8>::type" }
%"struct.std::__detail::_Hash_node.115" = type { %"struct.std::__detail::_Hash_node_base", %"struct.std::__detail::_Hash_node_value.116" }
%"struct.std::__detail::_Hash_node_value.116" = type { %"struct.std::__detail::_Hash_node_value_base.117" }
%"struct.std::__detail::_Hash_node_value_base.117" = type { %"struct.__gnu_cxx::__aligned_buffer.118" }
%"struct.__gnu_cxx::__aligned_buffer.118" = type { %"union.std::aligned_storage<32, 8>::type" }
%"union.std::aligned_storage<32, 8>::type" = type { [32 x i8] }
%"class.std::tuple" = type { %"struct.std::_Tuple_impl" }
%"struct.std::_Tuple_impl" = type { %"struct.std::_Tuple_impl.275", %"struct.std::_Head_base.278" }
%"struct.std::_Tuple_impl.275" = type { %"struct.std::_Tuple_impl.276", %"struct.std::_Head_base.277" }
%"struct.std::_Tuple_impl.276" = type { %"struct.std::_Head_base" }
%"struct.std::_Head_base" = type { i8 }
%"struct.std::_Head_base.277" = type { double }
%"struct.std::_Head_base.278" = type { %"class.std::__cxx11::basic_string" }
%"class.std::__cxx11::basic_string" = type { %"struct.std::__cxx11::basic_string<char>::_Alloc_hider", i64, %union.anon }
%"struct.std::__cxx11::basic_string<char>::_Alloc_hider" = type { i8* }
%union.anon = type { i64, [8 x i8] }
%"class.std::vector.270" = type { %"struct.std::_Vector_base.271" }
%"struct.std::_Vector_base.271" = type { %"struct.std::_Vector_base<std::tuple<std::__cxx11::basic_string<char>, double, bool>, std::allocator<std::tuple<std::__cxx11::basic_string<char>, double, bool>>>::_Vector_impl" }
%"struct.std::_Vector_base<std::tuple<std::__cxx11::basic_string<char>, double, bool>, std::allocator<std::tuple<std::__cxx11::basic_string<char>, double, bool>>>::_Vector_impl" = type { %"struct.std::_Vector_base<std::tuple<std::__cxx11::basic_string<char>, double, bool>, std::allocator<std::tuple<std::__cxx11::basic_string<char>, double, bool>>>::_Vector_impl_data" }
%"struct.std::_Vector_base<std::tuple<std::__cxx11::basic_string<char>, double, bool>, std::allocator<std::tuple<std::__cxx11::basic_string<char>, double, bool>>>::_Vector_impl_data" = type { %"class.std::tuple"*, %"class.std::tuple"*, %"class.std::tuple"* }
%"struct.std::pair" = type { i32, i32 }
%"struct.std::__detail::_Hash_node.280" = type { %"struct.std::__detail::_Hash_node_base", %"struct.std::__detail::_Hash_node_value.281" }
%"struct.std::__detail::_Hash_node_value.281" = type { %"struct.std::__detail::_Hash_node_value_base.282" }
%"struct.std::__detail::_Hash_node_value_base.282" = type { %"struct.__gnu_cxx::__aligned_buffer.283" }
%"struct.__gnu_cxx::__aligned_buffer.283" = type { %"union.std::aligned_storage<72, 8>::type" }
%"union.std::aligned_storage<72, 8>::type" = type { [72 x i8] }
%"struct.std::pair.188" = type { %"class.std::__cxx11::basic_string", %"class.std::__cxx11::basic_string" }
%"struct.std::__detail::_Map_base.178" = type { i8 }
%"struct.std::__detail::_AllocNode" = type { %"struct.std::__detail::_Hashtable_alloc.163"* }
%"struct.std::__detail::_Hashtable_alloc.163" = type { i8 }
%"struct.std::pair.171" = type { %"class.std::__cxx11::basic_string", i8* }
%"struct.std::__detail::_Hash_node.263" = type { %"struct.std::__detail::_Hash_node_base", %"struct.std::__detail::_Hash_node_value.264" }
%"struct.std::__detail::_Hash_node_value.264" = type { %"struct.std::__detail::_Hash_node_value_base.265" }
%"struct.std::__detail::_Hash_node_value_base.265" = type { %"struct.__gnu_cxx::__aligned_buffer.266" }
%"struct.__gnu_cxx::__aligned_buffer.266" = type { %"union.std::aligned_storage<8, 4>::type" }
%"union.std::aligned_storage<8, 4>::type" = type { [8 x i8] }
%"struct.std::__detail::_Hash_node.142" = type { %"struct.std::__detail::_Hash_node_base", %"struct.std::__detail::_Hash_node_value.143" }
%"struct.std::__detail::_Hash_node_value.143" = type { %"struct.std::__detail::_Hash_node_value_base.144", %"struct.std::__detail::_Hash_node_code_cache.146" }
%"struct.std::__detail::_Hash_node_value_base.144" = type { %"struct.__gnu_cxx::__aligned_buffer.145" }
%"struct.__gnu_cxx::__aligned_buffer.145" = type { %"union.std::aligned_storage<32, 8>::type" }
%"struct.std::__detail::_Hash_node_code_cache.146" = type { i64 }
%"class.std::allocator.124" = type { i8 }
%"struct.std::pair.195" = type { i32, %"class.std::vector" }
%"struct.std::__detail::_Map_base.74" = type { i8 }
%"struct.std::__detail::_Hash_node.241" = type { %"struct.std::__detail::_Hash_node_base", %"struct.std::__detail::_Hash_node_value.242" }
%"struct.std::__detail::_Hash_node_value.242" = type { %"struct.std::__detail::_Hash_node_value_base.243", %"struct.std::__detail::_Hash_node_code_cache.146" }
%"struct.std::__detail::_Hash_node_value_base.243" = type { %"struct.__gnu_cxx::__aligned_buffer.244" }
%"struct.__gnu_cxx::__aligned_buffer.244" = type { %"union.std::aligned_storage<40, 8>::type" }
%"union.std::aligned_storage<40, 8>::type" = type { [40 x i8] }
%"struct.std::__detail::_Map_base.252" = type { i8 }
%"struct.std::_Hashtable<unsigned int, std::pair<const unsigned int, std::vector<double>>, std::allocator<std::pair<const unsigned int, std::vector<double>>>, std::__detail::_Select1st, std::equal_to<unsigned int>, std::hash<unsigned int>, std::__detail::_Mod_range_hashing, std::__detail::_Default_ranged_hash, std::__detail::_Prime_rehash_policy, std::__detail::_Hashtable_traits<false, false, true>>::_Scoped_node" = type { %"struct.std::__detail::_Hashtable_alloc.107"*, %"struct.std::__detail::_Hash_node.115"* }
%"struct.std::__detail::_Hashtable_alloc.107" = type { i8 }
%"struct.std::_Hashtable<std::__cxx11::basic_string<char>, std::__cxx11::basic_string<char>, std::allocator<std::__cxx11::basic_string<char>>, std::__detail::_Identity, std::equal_to<std::__cxx11::basic_string<char>>, std::hash<std::string>, std::__detail::_Mod_range_hashing, std::__detail::_Default_ranged_hash, std::__detail::_Prime_rehash_policy, std::__detail::_Hashtable_traits<true, true, true>>::_Scoped_node" = type { %"struct.std::__detail::_Hashtable_alloc.163"*, %"struct.std::__detail::_Hash_node.142"* }
%"struct.std::_Hashtable<unsigned int, std::pair<const unsigned int, std::pair<std::__cxx11::basic_string<char>, std::__cxx11::basic_string<char>>>, std::allocator<std::pair<const unsigned int, std::pair<std::__cxx11::basic_string<char>, std::__cxx11::basic_string<char>>>>, std::__detail::_Select1st, std::equal_to<unsigned int>, std::hash<unsigned int>, std::__detail::_Mod_range_hashing, std::__detail::_Default_ranged_hash, std::__detail::_Prime_rehash_policy, std::__detail::_Hashtable_traits<false, false, true>>::_Scoped_node" = type { %"struct.std::__detail::_Hashtable_alloc.183"*, %"struct.std::__detail::_Hash_node.280"* }
%"struct.std::__detail::_Hashtable_alloc.183" = type { i8 }
%"struct.std::_Hashtable<int, std::pair<const int, UpdateOptData>, std::allocator<std::pair<const int, UpdateOptData>>, std::__detail::_Select1st, std::equal_to<int>, std::hash<int>, std::__detail::_Mod_range_hashing, std::__detail::_Default_ranged_hash, std::__detail::_Prime_rehash_policy, std::__detail::_Hashtable_traits<false, false, true>>::_Scoped_node" = type { %"struct.std::__detail::_Hashtable_alloc.79"*, %"struct.std::__detail::_Hash_node.202"* }
%"struct.std::__detail::_Hashtable_alloc.79" = type { i8 }
%"struct.std::vector<std::vector<double>>::_Temporary_value" = type { %"class.std::vector.59"*, %"union.std::aligned_storage<24, 8>::type" }
%"union.std::aligned_storage<24, 8>::type" = type { [24 x i8] }
%"struct.std::_Hashtable<std::__cxx11::basic_string<char>, std::pair<const std::__cxx11::basic_string<char>, std::pair<unsigned int, unsigned int>>, std::allocator<std::pair<const std::__cxx11::basic_string<char>, std::pair<unsigned int, unsigned int>>>, std::__detail::_Select1st, std::equal_to<std::__cxx11::basic_string<char>>, std::hash<std::string>, std::__detail::_Mod_range_hashing, std::__detail::_Default_ranged_hash, std::__detail::_Prime_rehash_policy, std::__detail::_Hashtable_traits<true, false, true>>::_Scoped_node" = type { %"struct.std::__detail::_Hashtable_alloc.257"*, %"struct.std::__detail::_Hash_node.241"* }
%"struct.std::__detail::_Hashtable_alloc.257" = type { i8 }

$_ZNSt6vectorIdSaIdEED2Ev = comdat any

$_ZNSt6vectorIbSaIbEED2Ev = comdat any

$_ZNSt13unordered_mapIjPSt6vectorIdSaIdEESt4hashIjESt8equal_toIjESaISt4pairIKjS3_EEED2Ev = comdat any

$_ZN13UpdateOptDataD2Ev = comdat any

$_ZNSt13unordered_mapIi13UpdateOptDataSt4hashIiESt8equal_toIiESaISt4pairIKiS0_EEED2Ev = comdat any

$_ZNSt13unordered_mapIjSt6vectorIdSaIdEESt4hashIjESt8equal_toIjESaISt4pairIKjS2_EEEixERS8_ = comdat any

$_ZNSt6vectorIdSaIdEEaSERKS1_ = comdat any

$_ZNSt13unordered_mapIjSt6vectorIdSaIdEESt4hashIjESt8equal_toIjESaISt4pairIKjS2_EEEixEOj = comdat any

$_ZNSt7__cxx119to_stringEj = comdat any

$_ZNSt13unordered_setINSt7__cxx1112basic_stringIcSt11char_traitsIcESaIcEEESt4hashIS5_ESt8equal_toIS5_ESaIS5_EED2Ev = comdat any

$_ZN13UpdateOptDataaSEOS_ = comdat any

$_ZNSt6vectorIS_IdSaIdEESaIS1_EEaSERKS3_ = comdat any

$_ZNSt6vectorISt5tupleIJNSt7__cxx1112basic_stringIcSt11char_traitsIcESaIcEEEdbEESaIS7_EED2Ev = comdat any

$__clang_call_terminate = comdat any

$_ZNSt8_Rb_treeIjjSt9_IdentityIjESt4lessIjESaIjEE8_M_eraseEPSt13_Rb_tree_nodeIjE = comdat any

$_ZNSt10_HashtableIjSt4pairIKjSt6vectorIdSaIdEEESaIS5_ENSt8__detail10_Select1stESt8equal_toIjESt4hashIjENS7_18_Mod_range_hashingENS7_20_Default_ranged_hashENS7_20_Prime_rehash_policyENS7_17_Hashtable_traitsILb0ELb0ELb1EEEED2Ev = comdat any

$_ZNSt10_HashtableIPdSt4pairIKS0_S1_IjjEESaIS4_ENSt8__detail10_Select1stESt8equal_toIS0_ESt4hashIS0_ENS6_18_Mod_range_hashingENS6_20_Default_ranged_hashENS6_20_Prime_rehash_policyENS6_17_Hashtable_traitsILb0ELb0ELb1EEEE21_M_insert_unique_nodeEmmPNS6_10_Hash_nodeIS4_Lb0EEEm = comdat any

$_ZNSt10_HashtableIPdSt4pairIKS0_S1_IjjEESaIS4_ENSt8__detail10_Select1stESt8equal_toIS0_ESt4hashIS0_ENS6_18_Mod_range_hashingENS6_20_Default_ranged_hashENS6_20_Prime_rehash_policyENS6_17_Hashtable_traitsILb0ELb0ELb1EEEE13_M_rehash_auxEmSt17integral_constantIbLb1EE = comdat any

$_ZNSt10_HashtableIjSt4pairIKjSt6vectorIdSaIdEEESaIS5_ENSt8__detail10_Select1stESt8equal_toIjESt4hashIjENS7_18_Mod_range_hashingENS7_20_Default_ranged_hashENS7_20_Prime_rehash_policyENS7_17_Hashtable_traitsILb0ELb0ELb1EEEE21_M_insert_unique_nodeEmmPNS7_10_Hash_nodeIS5_Lb0EEEm = comdat any

$_ZNSt10_HashtableIjSt4pairIKjSt6vectorIdSaIdEEESaIS5_ENSt8__detail10_Select1stESt8equal_toIjESt4hashIjENS7_18_Mod_range_hashingENS7_20_Default_ranged_hashENS7_20_Prime_rehash_policyENS7_17_Hashtable_traitsILb0ELb0ELb1EEEE12_Scoped_nodeD2Ev = comdat any

$_ZNSt10_HashtableIjSt4pairIKjSt6vectorIdSaIdEEESaIS5_ENSt8__detail10_Select1stESt8equal_toIjESt4hashIjENS7_18_Mod_range_hashingENS7_20_Default_ranged_hashENS7_20_Prime_rehash_policyENS7_17_Hashtable_traitsILb0ELb0ELb1EEEE13_M_rehash_auxEmSt17integral_constantIbLb1EE = comdat any

$_ZNSt10_HashtableIPdSt4pairIKS0_jESaIS3_ENSt8__detail10_Select1stESt8equal_toIS0_ESt4hashIS0_ENS5_18_Mod_range_hashingENS5_20_Default_ranged_hashENS5_20_Prime_rehash_policyENS5_17_Hashtable_traitsILb0ELb0ELb1EEEE21_M_insert_unique_nodeEmmPNS5_10_Hash_nodeIS3_Lb0EEEm = comdat any

$_ZNSt10_HashtableIPdSt4pairIKS0_jESaIS3_ENSt8__detail10_Select1stESt8equal_toIS0_ESt4hashIS0_ENS5_18_Mod_range_hashingENS5_20_Default_ranged_hashENS5_20_Prime_rehash_policyENS5_17_Hashtable_traitsILb0ELb0ELb1EEEE13_M_rehash_auxEmSt17integral_constantIbLb1EE = comdat any

$_ZNSt6vectorIS_IdSaIdEESaIS1_EE17_M_realloc_insertIJS1_EEEvN9__gnu_cxx17__normal_iteratorIPS1_S3_EEDpOT_ = comdat any

$_ZNSt10_HashtableIjSt4pairIKjjESaIS2_ENSt8__detail10_Select1stESt8equal_toIjESt4hashIjENS4_18_Mod_range_hashingENS4_20_Default_ranged_hashENS4_20_Prime_rehash_policyENS4_17_Hashtable_traitsILb0ELb0ELb1EEEE21_M_insert_unique_nodeEmmPNS4_10_Hash_nodeIS2_Lb0EEEm = comdat any

$_ZNSt10_HashtableIjSt4pairIKjjESaIS2_ENSt8__detail10_Select1stESt8equal_toIjESt4hashIjENS4_18_Mod_range_hashingENS4_20_Default_ranged_hashENS4_20_Prime_rehash_policyENS4_17_Hashtable_traitsILb0ELb0ELb1EEEE13_M_rehash_auxEmSt17integral_constantIbLb1EE = comdat any

$_ZNKSt10_HashtableINSt7__cxx1112basic_stringIcSt11char_traitsIcESaIcEEES5_SaIS5_ENSt8__detail9_IdentityESt8equal_toIS5_ESt4hashIS5_ENS7_18_Mod_range_hashingENS7_20_Default_ranged_hashENS7_20_Prime_rehash_policyENS7_17_Hashtable_traitsILb1ELb1ELb1EEEE12_M_find_nodeEmRKS5_m = comdat any

$_ZNSt10_HashtableINSt7__cxx1112basic_stringIcSt11char_traitsIcESaIcEEES5_SaIS5_ENSt8__detail9_IdentityESt8equal_toIS5_ESt4hashIS5_ENS7_18_Mod_range_hashingENS7_20_Default_ranged_hashENS7_20_Prime_rehash_policyENS7_17_Hashtable_traitsILb1ELb1ELb1EEEE9_M_insertIRKS5_NS7_10_AllocNodeISaINS7_10_Hash_nodeIS5_Lb1EEEEEEEESt4pairINS7_14_Node_iteratorIS5_Lb1ELb1EEEbEOT_RKT0_St17integral_constantIbLb1EE = comdat any

$_ZNSt10_HashtableINSt7__cxx1112basic_stringIcSt11char_traitsIcESaIcEEES5_SaIS5_ENSt8__detail9_IdentityESt8equal_toIS5_ESt4hashIS5_ENS7_18_Mod_range_hashingENS7_20_Default_ranged_hashENS7_20_Prime_rehash_policyENS7_17_Hashtable_traitsILb1ELb1ELb1EEEE21_M_insert_unique_nodeEmmPNS7_10_Hash_nodeIS5_Lb1EEEm = comdat any

$_ZNSt10_HashtableINSt7__cxx1112basic_stringIcSt11char_traitsIcESaIcEEES5_SaIS5_ENSt8__detail9_IdentityESt8equal_toIS5_ESt4hashIS5_ENS7_18_Mod_range_hashingENS7_20_Default_ranged_hashENS7_20_Prime_rehash_policyENS7_17_Hashtable_traitsILb1ELb1ELb1EEEE12_Scoped_nodeD2Ev = comdat any

$_ZNSt10_HashtableINSt7__cxx1112basic_stringIcSt11char_traitsIcESaIcEEES5_SaIS5_ENSt8__detail9_IdentityESt8equal_toIS5_ESt4hashIS5_ENS7_18_Mod_range_hashingENS7_20_Default_ranged_hashENS7_20_Prime_rehash_policyENS7_17_Hashtable_traitsILb1ELb1ELb1EEEE13_M_rehash_auxEmSt17integral_constantIbLb1EE = comdat any

$_ZNSt8__detail9_Map_baseIjSt4pairIKjS1_INSt7__cxx1112basic_stringIcSt11char_traitsIcESaIcEEES8_EESaISA_ENS_10_Select1stESt8equal_toIjESt4hashIjENS_18_Mod_range_hashingENS_20_Default_ranged_hashENS_20_Prime_rehash_policyENS_17_Hashtable_traitsILb0ELb0ELb1EEELb1EEixERS2_ = comdat any

$_ZNSt10_HashtableIjSt4pairIKjS0_INSt7__cxx1112basic_stringIcSt11char_traitsIcESaIcEEES7_EESaIS9_ENSt8__detail10_Select1stESt8equal_toIjESt4hashIjENSB_18_Mod_range_hashingENSB_20_Default_ranged_hashENSB_20_Prime_rehash_policyENSB_17_Hashtable_traitsILb0ELb0ELb1EEEE21_M_insert_unique_nodeEmmPNSB_10_Hash_nodeIS9_Lb0EEEm = comdat any

$_ZNSt10_HashtableIjSt4pairIKjS0_INSt7__cxx1112basic_stringIcSt11char_traitsIcESaIcEEES7_EESaIS9_ENSt8__detail10_Select1stESt8equal_toIjESt4hashIjENSB_18_Mod_range_hashingENSB_20_Default_ranged_hashENSB_20_Prime_rehash_policyENSB_17_Hashtable_traitsILb0ELb0ELb1EEEE12_Scoped_nodeD2Ev = comdat any

$_ZNSt10_HashtableIjSt4pairIKjS0_INSt7__cxx1112basic_stringIcSt11char_traitsIcESaIcEEES7_EESaIS9_ENSt8__detail10_Select1stESt8equal_toIjESt4hashIjENSB_18_Mod_range_hashingENSB_20_Default_ranged_hashENSB_20_Prime_rehash_policyENSB_17_Hashtable_traitsILb0ELb0ELb1EEEE13_M_rehash_auxEmSt17integral_constantIbLb1EE = comdat any

$_ZNSt10_HashtableIjSt4pairIKjSt6vectorIdSaIdEEESaIS5_ENSt8__detail10_Select1stESt8equal_toIjESt4hashIjENS7_18_Mod_range_hashingENS7_20_Default_ranged_hashENS7_20_Prime_rehash_policyENS7_17_Hashtable_traitsILb0ELb0ELb1EEEE10_M_emplaceIJS0_IjS4_EEEES0_INS7_14_Node_iteratorIS5_Lb0ELb0EEEbESt17integral_constantIbLb1EEDpOT_ = comdat any

$_ZNSt8__detail9_Map_baseIiSt4pairIKi13UpdateOptDataESaIS4_ENS_10_Select1stESt8equal_toIiESt4hashIiENS_18_Mod_range_hashingENS_20_Default_ranged_hashENS_20_Prime_rehash_policyENS_17_Hashtable_traitsILb0ELb0ELb1EEELb1EEixERS2_ = comdat any

$_ZNSt10_HashtableIiSt4pairIKi13UpdateOptDataESaIS3_ENSt8__detail10_Select1stESt8equal_toIiESt4hashIiENS5_18_Mod_range_hashingENS5_20_Default_ranged_hashENS5_20_Prime_rehash_policyENS5_17_Hashtable_traitsILb0ELb0ELb1EEEE21_M_insert_unique_nodeEmmPNS5_10_Hash_nodeIS3_Lb0EEEm = comdat any

$_ZNSt10_HashtableIiSt4pairIKi13UpdateOptDataESaIS3_ENSt8__detail10_Select1stESt8equal_toIiESt4hashIiENS5_18_Mod_range_hashingENS5_20_Default_ranged_hashENS5_20_Prime_rehash_policyENS5_17_Hashtable_traitsILb0ELb0ELb1EEEE12_Scoped_nodeD2Ev = comdat any

$_ZNSt10_HashtableIiSt4pairIKi13UpdateOptDataESaIS3_ENSt8__detail10_Select1stESt8equal_toIiESt4hashIiENS5_18_Mod_range_hashingENS5_20_Default_ranged_hashENS5_20_Prime_rehash_policyENS5_17_Hashtable_traitsILb0ELb0ELb1EEEE13_M_rehash_auxEmSt17integral_constantIbLb1EE = comdat any

$_ZNSt10_HashtableIPdS0_SaIS0_ENSt8__detail9_IdentityESt8equal_toIS0_ESt4hashIS0_ENS2_18_Mod_range_hashingENS2_20_Default_ranged_hashENS2_20_Prime_rehash_policyENS2_17_Hashtable_traitsILb0ELb1ELb1EEEE21_M_insert_unique_nodeEmmPNS2_10_Hash_nodeIS0_Lb0EEEm = comdat any

$_ZNSt10_HashtableIPdS0_SaIS0_ENSt8__detail9_IdentityESt8equal_toIS0_ESt4hashIS0_ENS2_18_Mod_range_hashingENS2_20_Default_ranged_hashENS2_20_Prime_rehash_policyENS2_17_Hashtable_traitsILb0ELb1ELb1EEEE13_M_rehash_auxEmSt17integral_constantIbLb1EE = comdat any

$_ZNSt10_HashtableIjSt4pairIKjPdESaIS3_ENSt8__detail10_Select1stESt8equal_toIjESt4hashIjENS5_18_Mod_range_hashingENS5_20_Default_ranged_hashENS5_20_Prime_rehash_policyENS5_17_Hashtable_traitsILb0ELb0ELb1EEEE21_M_insert_unique_nodeEmmPNS5_10_Hash_nodeIS3_Lb0EEEm = comdat any

$_ZNSt10_HashtableIjSt4pairIKjPdESaIS3_ENSt8__detail10_Select1stESt8equal_toIjESt4hashIjENS5_18_Mod_range_hashingENS5_20_Default_ranged_hashENS5_20_Prime_rehash_policyENS5_17_Hashtable_traitsILb0ELb0ELb1EEEE13_M_rehash_auxEmSt17integral_constantIbLb1EE = comdat any

$_ZNSt6vectorIS_IdSaIdEESaIS1_EE14_M_fill_insertEN9__gnu_cxx17__normal_iteratorIPS1_S3_EEmRKS1_ = comdat any

$_ZNSt22__uninitialized_fill_nILb0EE15__uninit_fill_nIPSt6vectorIdSaIdEEmS4_EET_S6_T0_RKT1_ = comdat any

$_ZNSt6vectorIdSaIdEE14_M_fill_insertEN9__gnu_cxx17__normal_iteratorIPdS1_EEmRKd = comdat any

$_ZNSt6vectorIS_IdSaIdEESaIS1_EE20_M_allocate_and_copyIN9__gnu_cxx17__normal_iteratorIPKS1_S3_EEEEPS1_mT_SB_ = comdat any

$_ZNSt20__uninitialized_copyILb0EE13__uninit_copyIN9__gnu_cxx17__normal_iteratorIPKSt6vectorIdSaIdEES4_IS6_SaIS6_EEEEPS6_EET0_T_SE_SD_ = comdat any

$_ZNSt20__uninitialized_copyILb0EE13__uninit_copyIPSt6vectorIdSaIdEES5_EET0_T_S7_S6_ = comdat any

$_ZNKSt10_HashtableINSt7__cxx1112basic_stringIcSt11char_traitsIcESaIcEEESt4pairIKS5_S6_IjjEESaIS9_ENSt8__detail10_Select1stESt8equal_toIS5_ESt4hashIS5_ENSB_18_Mod_range_hashingENSB_20_Default_ranged_hashENSB_20_Prime_rehash_policyENSB_17_Hashtable_traitsILb1ELb0ELb1EEEE12_M_find_nodeEmRS7_m = comdat any

$_ZNSt8__detail9_Map_baseINSt7__cxx1112basic_stringIcSt11char_traitsIcESaIcEEESt4pairIKS6_S7_IjjEESaISA_ENS_10_Select1stESt8equal_toIS6_ESt4hashIS6_ENS_18_Mod_range_hashingENS_20_Default_ranged_hashENS_20_Prime_rehash_policyENS_17_Hashtable_traitsILb1ELb0ELb1EEELb1EEixERS8_ = comdat any

$_ZNSt10_HashtableINSt7__cxx1112basic_stringIcSt11char_traitsIcESaIcEEESt4pairIKS5_S6_IjjEESaIS9_ENSt8__detail10_Select1stESt8equal_toIS5_ESt4hashIS5_ENSB_18_Mod_range_hashingENSB_20_Default_ranged_hashENSB_20_Prime_rehash_policyENSB_17_Hashtable_traitsILb1ELb0ELb1EEEE21_M_insert_unique_nodeEmmPNSB_10_Hash_nodeIS9_Lb1EEEm = comdat any

$_ZNSt10_HashtableINSt7__cxx1112basic_stringIcSt11char_traitsIcESaIcEEESt4pairIKS5_S6_IjjEESaIS9_ENSt8__detail10_Select1stESt8equal_toIS5_ESt4hashIS5_ENSB_18_Mod_range_hashingENSB_20_Default_ranged_hashENSB_20_Prime_rehash_policyENSB_17_Hashtable_traitsILb1ELb0ELb1EEEE12_Scoped_nodeD2Ev = comdat any

$_ZNSt10_HashtableINSt7__cxx1112basic_stringIcSt11char_traitsIcESaIcEEESt4pairIKS5_S6_IjjEESaIS9_ENSt8__detail10_Select1stESt8equal_toIS5_ESt4hashIS5_ENSB_18_Mod_range_hashingENSB_20_Default_ranged_hashENSB_20_Prime_rehash_policyENSB_17_Hashtable_traitsILb1ELb0ELb1EEEE13_M_rehash_auxEmSt17integral_constantIbLb1EE = comdat any

$_ZNSt6vectorIbSaIbEE13_M_insert_auxESt13_Bit_iteratorb = comdat any

$_ZNSt8__detail9_Map_baseIjSt4pairIKjS1_INSt7__cxx1112basic_stringIcSt11char_traitsIcESaIcEEES8_EESaISA_ENS_10_Select1stESt8equal_toIjESt4hashIjENS_18_Mod_range_hashingENS_20_Default_ranged_hashENS_20_Prime_rehash_policyENS_17_Hashtable_traitsILb0ELb0ELb1EEELb1EEixEOj = comdat any

$_ZNSt6vectorISt5tupleIJNSt7__cxx1112basic_stringIcSt11char_traitsIcESaIcEEEdbEESaIS7_EE17_M_realloc_insertIJS7_EEEvN9__gnu_cxx17__normal_iteratorIPS7_S9_EEDpOT_ = comdat any

$_ZZNSt8__detail18__to_chars_10_implIjEEvPcjT_E8__digits = comdat any

@_ZStL8__ioinit = internal global %"class.std::ios_base::Init" zeroinitializer, align 1
@__dso_handle = external hidden global i8
@arg_id = dso_local global i32 0, align 4
@new_row = dso_local global %"class.std::vector" zeroinitializer, align 16
@updated_rows = dso_local global %"class.std::vector.0" zeroinitializer, align 8
@reduced_errors = dso_local global %"class.std::unordered_map" zeroinitializer, align 8
@GlobalUOData = dso_local global %struct.UpdateOptData zeroinitializer, align 8
@UOData_map = dso_local global %"class.std::unordered_map.64" zeroinitializer, align 8
@UOData = dso_local local_unnamed_addr global %struct.UpdateOptData* null, align 8
@ReuseUOData = dso_local local_unnamed_addr global i8 0, align 1
@CRID = dso_local global i32 0, align 4
@reductVar = dso_local local_unnamed_addr global double* null, align 8
@ptrToEPMidx = external dso_local global %"class.std::unordered_map.84", align 8
@col_size = external dso_local local_unnamed_addr global i32, align 4
@EPM = external dso_local global %"class.std::vector.59", align 8
@rowPassMap = external dso_local global %"class.std::unordered_map.98", align 8
@_ZSt4cout = external dso_local global %"class.std::basic_ostream", align 8
@.str = private unnamed_addr constant [43 x i8] c"found rowPassMap inf in collect, arg_id = \00", align 1
@.str.6 = private unnamed_addr constant [2 x i8] c"\0A\00", align 1
@clusterCounter = external dso_local local_unnamed_addr global i32, align 4
@clusterIDToEPMCol = external dso_local global %"class.std::unordered_map.127", align 8
@_Z8labelSetB5cxx11 = external dso_local global %"class.std::unordered_set.148", align 8
@.str.7 = private unnamed_addr constant [2 x i8] c".\00", align 1
@.str.8 = private unnamed_addr constant [1 x i8] zeroinitializer, align 1
@_Z13colIdxToLabelB5cxx11 = external dso_local global %"class.std::unordered_map.174", align 8
@.str.9 = private unnamed_addr constant [40 x i8] c"found rowPassMap inf in load, arg_id = \00", align 1
@_ZZ30SAESP_ReducedBetweenIterationsE11called_funcB5cxx11 = internal global %"class.std::unordered_set.148" zeroinitializer, align 8
@_ZGVZ30SAESP_ReducedBetweenIterationsE11called_funcB5cxx11 = internal global i64 0, align 8
@.str.10 = private unnamed_addr constant [50 x i8] c"0 && \22the variable is not submitted in advance\\n\22\00", align 1
@.str.11 = private unnamed_addr constant [29 x i8] c"../../runtime/saesp_header.h\00", align 1
@__PRETTY_FUNCTION__.SAESP_ReducedBetweenIterations = private unnamed_addr constant [104 x i8] c"std::unordered_map<uint32_t, std::vector<double>> SAESP_ReducedBetweenIterations(std::string, int, ...)\00", align 1
@.str.12 = private unnamed_addr constant [70 x i8] c"0 && \22not support that EPM size is not consistent with reduced_err\\n\22\00", align 1
@__PRETTY_FUNCTION__.saesp_reduce_between_iterations = private unnamed_addr constant [88 x i8] c"void saesp_reduce_between_iterations(std::unordered_map<uint32_t, std::vector<double>>)\00", align 1
@.str.13 = private unnamed_addr constant [68 x i8] c"0 && \22Runtime Fault: Opt Variable Already Submitted or Not Tracked\22\00", align 1
@__PRETTY_FUNCTION__.SAESP_UpdateOptVariables = private unnamed_addr constant [50 x i8] c"void SAESP_UpdateOptVariables(uint32_t, int, ...)\00", align 1
@.str.14 = private unnamed_addr constant [44 x i8] c"0 && \22Runtime Fault: Invalid Variable Type\22\00", align 1
@_Z18replacedLabelToIdxB5cxx11 = external dso_local global %"class.std::unordered_map.248", align 8
@.str.16 = private unnamed_addr constant [101 x i8] c"clusterIDToEPMCol.find(cluster_id) != clusterIDToEPMCol.end() && \22Runtime fault: illegal ClusterID!\22\00", align 1
@__PRETTY_FUNCTION__.SAESP_SubmitFP = private unnamed_addr constant [69 x i8] c"void SAESP_SubmitFP(double *, std::string, uint32_t, bool, uint32_t)\00", align 1
@labelRepeatCounter = external dso_local local_unnamed_addr global i32, align 4
@.str.18 = private unnamed_addr constant [101 x i8] c"ptrToEPMidx.find(ptr) != ptrToEPMidx.end() && \22Runtime fault: output double variable not submitted!\22\00", align 1
@__PRETTY_FUNCTION__.SAESP_ShowErrorSourcesOfFP = private unnamed_addr constant [42 x i8] c"void SAESP_ShowErrorSourcesOfFP(double *)\00", align 1
@.str.20 = private unnamed_addr constant [110 x i8] c"colIdxToLabel.find(idx_pair.second) != colIdxToLabel.end() && \22Runtime fault: column no corresponding label!\22\00", align 1
@.str.21 = private unnamed_addr constant [96 x i8] c"colIdxToLabel.find(i) != colIdxToLabel.end() && \22Runtime fault: column no corresponding label!\22\00", align 1
@.str.22 = private unnamed_addr constant [12 x i8] c"\0A**********\00", align 1
@.str.23 = private unnamed_addr constant [15 x i8] c" Error Sources\00", align 1
@.str.24 = private unnamed_addr constant [12 x i8] c"**********\0A\00", align 1
@.str.25 = private unnamed_addr constant [3 x i8] c": \00", align 1
@.str.26 = private unnamed_addr constant [4 x i8] c"(-)\00", align 1
@.str.27 = private unnamed_addr constant [4 x i8] c"(+)\00", align 1
@.str.28 = private unnamed_addr constant [8 x i8] c"Total: \00", align 1
@.str.29 = private unnamed_addr constant [42 x i8] c"******************End******************\0A\0A\00", align 1
@sum = dso_local global double 0.000000e+00, align 8
@.str.30 = private unnamed_addr constant [4 x i8] c"0: \00", align 1
@.str.31 = private unnamed_addr constant [4 x i8] c"1: \00", align 1
@.str.32 = private unnamed_addr constant [4 x i8] c"2: \00", align 1
@.str.33 = private unnamed_addr constant [9 x i8] c"f3.temp0\00", align 1
@.str.34 = private unnamed_addr constant [9 x i8] c"f3.temp1\00", align 1
@.str.35 = private unnamed_addr constant [9 x i8] c"f3.temp2\00", align 1
@.str.36 = private unnamed_addr constant [9 x i8] c"f1.temp0\00", align 1
@.str.37 = private unnamed_addr constant [9 x i8] c"f1.temp1\00", align 1
@.str.38 = private unnamed_addr constant [9 x i8] c"f1.temp2\00", align 1
@.str.39 = private unnamed_addr constant [9 x i8] c"f2.temp0\00", align 1
@.str.40 = private unnamed_addr constant [9 x i8] c"f2.temp1\00", align 1
@.str.41 = private unnamed_addr constant [9 x i8] c"f2.temp2\00", align 1
@.str.42 = private unnamed_addr constant [4 x i8] c"sum\00", align 1
@_ZZNSt8__detail18__to_chars_10_implIjEEvPcjT_E8__digits = linkonce_odr dso_local local_unnamed_addr constant [201 x i8] c"00010203040506070809101112131415161718192021222324252627282930313233343536373839404142434445464748495051525354555657585960616263646566676869707172737475767778798081828384858687888990919293949596979899\00", comdat, align 16
@.str.43 = private unnamed_addr constant [49 x i8] c"cannot create std::vector larger than max_size()\00", align 1
@.str.44 = private unnamed_addr constant [26 x i8] c"vector::_M_realloc_insert\00", align 1
@.str.45 = private unnamed_addr constant [23 x i8] c"vector::_M_fill_insert\00", align 1
@.str.46 = private unnamed_addr constant [28 x i8] c"vector<bool>::_M_insert_aux\00", align 1
@llvm.global_ctors = appending global [1 x { i32, void ()*, i8* }] [{ i32, void ()*, i8* } { i32 65535, void ()* @_GLOBAL__sub_I_scalar.cpp, i8* null }]

declare dso_local void @_ZNSt8ios_base4InitC1Ev(%"class.std::ios_base::Init"* nonnull align 1 dereferenceable(1)) unnamed_addr #0

; Function Attrs: nounwind
declare dso_local void @_ZNSt8ios_base4InitD1Ev(%"class.std::ios_base::Init"* nonnull align 1 dereferenceable(1)) unnamed_addr #1

; Function Attrs: nofree nounwind
declare dso_local i32 @__cxa_atexit(void (i8*)*, i8*, i8*) local_unnamed_addr #2

; Function Attrs: nounwind uwtable
define linkonce_odr dso_local void @_ZNSt6vectorIdSaIdEED2Ev(%"class.std::vector"* nonnull align 8 dereferenceable(24) %0) unnamed_addr #3 comdat align 2 personality i8* bitcast (i32 (...)* @__gxx_personality_v0 to i8*) {
  %2 = getelementptr inbounds %"class.std::vector", %"class.std::vector"* %0, i64 0, i32 0, i32 0, i32 0, i32 0
  %3 = load double*, double** %2, align 8
  %.not.i.i = icmp eq double* %3, null
  br i1 %.not.i.i, label %_ZNSt12_Vector_baseIdSaIdEED2Ev.exit, label %4

4:                                                ; preds = %1
  %5 = bitcast double* %3 to i8*
  tail call void @_ZdlPv(i8* nonnull %5) #23
  br label %_ZNSt12_Vector_baseIdSaIdEED2Ev.exit

_ZNSt12_Vector_baseIdSaIdEED2Ev.exit:             ; preds = %1, %4
  ret void
}

; Function Attrs: nounwind uwtable
define linkonce_odr dso_local void @_ZNSt6vectorIbSaIbEED2Ev(%"class.std::vector.0"* nonnull align 8 dereferenceable(40) %0) unnamed_addr #3 comdat align 2 personality i32 (...)* @__gxx_personality_v0 {
  %2 = getelementptr inbounds %"class.std::vector.0", %"class.std::vector.0"* %0, i64 0, i32 0, i32 0, i32 0, i32 0, i32 0, i32 0
  %3 = load i64*, i64** %2, align 8
  %.not.i.i = icmp eq i64* %3, null
  br i1 %.not.i.i, label %_ZNSt13_Bvector_baseISaIbEED2Ev.exit, label %4

4:                                                ; preds = %1
  %5 = getelementptr inbounds %"class.std::vector.0", %"class.std::vector.0"* %0, i64 0, i32 0, i32 0, i32 0, i32 2
  %6 = load i64*, i64** %5, align 8
  %7 = ptrtoint i64* %6 to i64
  %8 = ptrtoint i64* %3 to i64
  %9 = sub i64 %7, %8
  %10 = ashr exact i64 %9, 3
  %11 = sub nsw i64 0, %10
  %12 = getelementptr inbounds i64, i64* %6, i64 %11
  %13 = bitcast i64* %12 to i8*
  tail call void @_ZdlPv(i8* %13) #23
  store i64* null, i64** %2, align 8
  %.sroa.2.0..sroa_idx1.i.i.i = getelementptr inbounds %"class.std::vector.0", %"class.std::vector.0"* %0, i64 0, i32 0, i32 0, i32 0, i32 0, i32 0, i32 1
  store i32 0, i32* %.sroa.2.0..sroa_idx1.i.i.i, align 8
  %.sroa.33.0..sroa_idx4.i.i.i = getelementptr inbounds %"class.std::vector.0", %"class.std::vector.0"* %0, i64 0, i32 0, i32 0, i32 0, i32 1, i32 0, i32 0
  store i64* null, i64** %.sroa.33.0..sroa_idx4.i.i.i, align 8
  %.sroa.4.0..sroa_idx5.i.i.i = getelementptr inbounds %"class.std::vector.0", %"class.std::vector.0"* %0, i64 0, i32 0, i32 0, i32 0, i32 1, i32 0, i32 1
  store i32 0, i32* %.sroa.4.0..sroa_idx5.i.i.i, align 8
  store i64* null, i64** %5, align 8
  br label %_ZNSt13_Bvector_baseISaIbEED2Ev.exit

_ZNSt13_Bvector_baseISaIbEED2Ev.exit:             ; preds = %1, %4
  ret void
}

; Function Attrs: nounwind uwtable
define linkonce_odr dso_local void @_ZNSt13unordered_mapIjPSt6vectorIdSaIdEESt4hashIjESt8equal_toIjESaISt4pairIKjS3_EEED2Ev(%"class.std::unordered_map"* nonnull align 8 dereferenceable(56) %0) unnamed_addr #3 comdat align 2 personality i32 (...)* @__gxx_personality_v0 {
  %2 = getelementptr inbounds %"class.std::unordered_map", %"class.std::unordered_map"* %0, i64 0, i32 0, i32 2, i32 0
  %3 = bitcast %"struct.std::__detail::_Hash_node_base"** %2 to %"struct.std::__detail::_Hash_node.291"**
  %4 = load %"struct.std::__detail::_Hash_node.291"*, %"struct.std::__detail::_Hash_node.291"** %3, align 8
  %.not5.i.i.i = icmp eq %"struct.std::__detail::_Hash_node.291"* %4, null
  br i1 %.not5.i.i.i, label %_ZNSt10_HashtableIjSt4pairIKjPSt6vectorIdSaIdEEESaIS6_ENSt8__detail10_Select1stESt8equal_toIjESt4hashIjENS8_18_Mod_range_hashingENS8_20_Default_ranged_hashENS8_20_Prime_rehash_policyENS8_17_Hashtable_traitsILb0ELb0ELb1EEEE5clearEv.exit.i, label %.lr.ph.i.i.i

.lr.ph.i.i.i:                                     ; preds = %1, %.lr.ph.i.i.i
  %.06.i.i.i = phi %"struct.std::__detail::_Hash_node.291"* [ %6, %.lr.ph.i.i.i ], [ %4, %1 ]
  %5 = bitcast %"struct.std::__detail::_Hash_node.291"* %.06.i.i.i to %"struct.std::__detail::_Hash_node.291"**
  %6 = load %"struct.std::__detail::_Hash_node.291"*, %"struct.std::__detail::_Hash_node.291"** %5, align 8
  %7 = bitcast %"struct.std::__detail::_Hash_node.291"* %.06.i.i.i to i8*
  tail call void @_ZdlPv(i8* nonnull %7) #23
  %.not.i.i.i = icmp eq %"struct.std::__detail::_Hash_node.291"* %6, null
  br i1 %.not.i.i.i, label %_ZNSt10_HashtableIjSt4pairIKjPSt6vectorIdSaIdEEESaIS6_ENSt8__detail10_Select1stESt8equal_toIjESt4hashIjENS8_18_Mod_range_hashingENS8_20_Default_ranged_hashENS8_20_Prime_rehash_policyENS8_17_Hashtable_traitsILb0ELb0ELb1EEEE5clearEv.exit.i, label %.lr.ph.i.i.i, !llvm.loop !4

_ZNSt10_HashtableIjSt4pairIKjPSt6vectorIdSaIdEEESaIS6_ENSt8__detail10_Select1stESt8equal_toIjESt4hashIjENS8_18_Mod_range_hashingENS8_20_Default_ranged_hashENS8_20_Prime_rehash_policyENS8_17_Hashtable_traitsILb0ELb0ELb1EEEE5clearEv.exit.i: ; preds = %.lr.ph.i.i.i, %1
  %8 = bitcast %"class.std::unordered_map"* %0 to i8**
  %9 = load i8*, i8** %8, align 8
  %10 = getelementptr inbounds %"class.std::unordered_map", %"class.std::unordered_map"* %0, i64 0, i32 0, i32 1
  %11 = load i64, i64* %10, align 8
  %12 = shl i64 %11, 3
  tail call void @llvm.memset.p0i8.i64(i8* align 8 %9, i8 0, i64 %12, i1 false) #23
  %13 = bitcast %"struct.std::__detail::_Hash_node_base"** %2 to i8*
  tail call void @llvm.memset.p0i8.i64(i8* noundef nonnull align 8 dereferenceable(16) %13, i8 0, i64 16, i1 false) #23
  %14 = getelementptr inbounds %"class.std::unordered_map", %"class.std::unordered_map"* %0, i64 0, i32 0, i32 0
  %15 = load %"struct.std::__detail::_Hash_node_base"**, %"struct.std::__detail::_Hash_node_base"*** %14, align 8
  %16 = getelementptr inbounds %"class.std::unordered_map", %"class.std::unordered_map"* %0, i64 0, i32 0, i32 5
  %17 = icmp eq %"struct.std::__detail::_Hash_node_base"** %16, %15
  br i1 %17, label %_ZNSt10_HashtableIjSt4pairIKjPSt6vectorIdSaIdEEESaIS6_ENSt8__detail10_Select1stESt8equal_toIjESt4hashIjENS8_18_Mod_range_hashingENS8_20_Default_ranged_hashENS8_20_Prime_rehash_policyENS8_17_Hashtable_traitsILb0ELb0ELb1EEEED2Ev.exit, label %18

18:                                               ; preds = %_ZNSt10_HashtableIjSt4pairIKjPSt6vectorIdSaIdEEESaIS6_ENSt8__detail10_Select1stESt8equal_toIjESt4hashIjENS8_18_Mod_range_hashingENS8_20_Default_ranged_hashENS8_20_Prime_rehash_policyENS8_17_Hashtable_traitsILb0ELb0ELb1EEEE5clearEv.exit.i
  %19 = bitcast %"struct.std::__detail::_Hash_node_base"** %15 to i8*
  tail call void @_ZdlPv(i8* %19) #23
  br label %_ZNSt10_HashtableIjSt4pairIKjPSt6vectorIdSaIdEEESaIS6_ENSt8__detail10_Select1stESt8equal_toIjESt4hashIjENS8_18_Mod_range_hashingENS8_20_Default_ranged_hashENS8_20_Prime_rehash_policyENS8_17_Hashtable_traitsILb0ELb0ELb1EEEED2Ev.exit

_ZNSt10_HashtableIjSt4pairIKjPSt6vectorIdSaIdEEESaIS6_ENSt8__detail10_Select1stESt8equal_toIjESt4hashIjENS8_18_Mod_range_hashingENS8_20_Default_ranged_hashENS8_20_Prime_rehash_policyENS8_17_Hashtable_traitsILb0ELb0ELb1EEEED2Ev.exit: ; preds = %_ZNSt10_HashtableIjSt4pairIKjPSt6vectorIdSaIdEEESaIS6_ENSt8__detail10_Select1stESt8equal_toIjESt4hashIjENS8_18_Mod_range_hashingENS8_20_Default_ranged_hashENS8_20_Prime_rehash_policyENS8_17_Hashtable_traitsILb0ELb0ELb1EEEE5clearEv.exit.i, %18
  ret void
}

; Function Attrs: nounwind uwtable
define linkonce_odr dso_local void @_ZN13UpdateOptDataD2Ev(%struct.UpdateOptData* nonnull align 8 dereferenceable(336) %0) unnamed_addr #3 comdat align 2 personality i32 (...)* @__gxx_personality_v0 {
  %2 = getelementptr inbounds %struct.UpdateOptData, %struct.UpdateOptData* %0, i64 0, i32 7, i32 0, i32 0, i32 0, i32 0
  %3 = load double*, double** %2, align 8
  %.not.i.i.i = icmp eq double* %3, null
  br i1 %.not.i.i.i, label %_ZNSt6vectorIdSaIdEED2Ev.exit, label %4

4:                                                ; preds = %1
  %5 = bitcast double* %3 to i8*
  tail call void @_ZdlPv(i8* nonnull %5) #23
  br label %_ZNSt6vectorIdSaIdEED2Ev.exit

_ZNSt6vectorIdSaIdEED2Ev.exit:                    ; preds = %1, %4
  %6 = getelementptr inbounds %struct.UpdateOptData, %struct.UpdateOptData* %0, i64 0, i32 6, i32 0, i32 0, i32 0, i32 0
  %7 = load %"class.std::vector"*, %"class.std::vector"** %6, align 8
  %8 = getelementptr inbounds %struct.UpdateOptData, %struct.UpdateOptData* %0, i64 0, i32 6, i32 0, i32 0, i32 0, i32 1
  %9 = load %"class.std::vector"*, %"class.std::vector"** %8, align 8
  %.not4.i.i.i.i = icmp eq %"class.std::vector"* %7, %9
  br i1 %.not4.i.i.i.i, label %_ZSt8_DestroyIPSt6vectorIdSaIdEES2_EvT_S4_RSaIT0_E.exit.i, label %.lr.ph.i.i.i.i

.lr.ph.i.i.i.i:                                   ; preds = %_ZNSt6vectorIdSaIdEED2Ev.exit, %_ZSt8_DestroyISt6vectorIdSaIdEEEvPT_.exit.i.i.i.i
  %.05.i.i.i.i = phi %"class.std::vector"* [ %14, %_ZSt8_DestroyISt6vectorIdSaIdEEEvPT_.exit.i.i.i.i ], [ %7, %_ZNSt6vectorIdSaIdEED2Ev.exit ]
  %10 = getelementptr inbounds %"class.std::vector", %"class.std::vector"* %.05.i.i.i.i, i64 0, i32 0, i32 0, i32 0, i32 0
  %11 = load double*, double** %10, align 8
  %.not.i.i.i.i.i.i.i.i = icmp eq double* %11, null
  br i1 %.not.i.i.i.i.i.i.i.i, label %_ZSt8_DestroyISt6vectorIdSaIdEEEvPT_.exit.i.i.i.i, label %12

12:                                               ; preds = %.lr.ph.i.i.i.i
  %13 = bitcast double* %11 to i8*
  tail call void @_ZdlPv(i8* nonnull %13) #23
  br label %_ZSt8_DestroyISt6vectorIdSaIdEEEvPT_.exit.i.i.i.i

_ZSt8_DestroyISt6vectorIdSaIdEEEvPT_.exit.i.i.i.i: ; preds = %12, %.lr.ph.i.i.i.i
  %14 = getelementptr inbounds %"class.std::vector", %"class.std::vector"* %.05.i.i.i.i, i64 1
  %.not.i.i.i.i = icmp eq %"class.std::vector"* %14, %9
  br i1 %.not.i.i.i.i, label %_ZSt8_DestroyIPSt6vectorIdSaIdEES2_EvT_S4_RSaIT0_E.exit.loopexit.i, label %.lr.ph.i.i.i.i, !llvm.loop !6

_ZSt8_DestroyIPSt6vectorIdSaIdEES2_EvT_S4_RSaIT0_E.exit.loopexit.i: ; preds = %_ZSt8_DestroyISt6vectorIdSaIdEEEvPT_.exit.i.i.i.i
  %.pre.i = load %"class.std::vector"*, %"class.std::vector"** %6, align 8
  br label %_ZSt8_DestroyIPSt6vectorIdSaIdEES2_EvT_S4_RSaIT0_E.exit.i

_ZSt8_DestroyIPSt6vectorIdSaIdEES2_EvT_S4_RSaIT0_E.exit.i: ; preds = %_ZSt8_DestroyIPSt6vectorIdSaIdEES2_EvT_S4_RSaIT0_E.exit.loopexit.i, %_ZNSt6vectorIdSaIdEED2Ev.exit
  %15 = phi %"class.std::vector"* [ %.pre.i, %_ZSt8_DestroyIPSt6vectorIdSaIdEES2_EvT_S4_RSaIT0_E.exit.loopexit.i ], [ %7, %_ZNSt6vectorIdSaIdEED2Ev.exit ]
  %.not.i.i.i1 = icmp eq %"class.std::vector"* %15, null
  br i1 %.not.i.i.i1, label %_ZNSt6vectorIS_IdSaIdEESaIS1_EED2Ev.exit, label %16

16:                                               ; preds = %_ZSt8_DestroyIPSt6vectorIdSaIdEES2_EvT_S4_RSaIT0_E.exit.i
  %17 = bitcast %"class.std::vector"* %15 to i8*
  tail call void @_ZdlPv(i8* nonnull %17) #23
  br label %_ZNSt6vectorIS_IdSaIdEESaIS1_EED2Ev.exit

_ZNSt6vectorIS_IdSaIdEESaIS1_EED2Ev.exit:         ; preds = %_ZSt8_DestroyIPSt6vectorIdSaIdEES2_EvT_S4_RSaIT0_E.exit.i, %16
  %18 = getelementptr inbounds %struct.UpdateOptData, %struct.UpdateOptData* %0, i64 0, i32 5, i32 0, i32 0, i32 0, i32 0
  %19 = load %"class.std::vector"*, %"class.std::vector"** %18, align 8
  %20 = getelementptr inbounds %struct.UpdateOptData, %struct.UpdateOptData* %0, i64 0, i32 5, i32 0, i32 0, i32 0, i32 1
  %21 = load %"class.std::vector"*, %"class.std::vector"** %20, align 8
  %.not4.i.i.i.i2 = icmp eq %"class.std::vector"* %19, %21
  br i1 %.not4.i.i.i.i2, label %_ZSt8_DestroyIPSt6vectorIdSaIdEES2_EvT_S4_RSaIT0_E.exit.i11, label %.lr.ph.i.i.i.i5

.lr.ph.i.i.i.i5:                                  ; preds = %_ZNSt6vectorIS_IdSaIdEESaIS1_EED2Ev.exit, %_ZSt8_DestroyISt6vectorIdSaIdEEEvPT_.exit.i.i.i.i7
  %.05.i.i.i.i3 = phi %"class.std::vector"* [ %26, %_ZSt8_DestroyISt6vectorIdSaIdEEEvPT_.exit.i.i.i.i7 ], [ %19, %_ZNSt6vectorIS_IdSaIdEESaIS1_EED2Ev.exit ]
  %22 = getelementptr inbounds %"class.std::vector", %"class.std::vector"* %.05.i.i.i.i3, i64 0, i32 0, i32 0, i32 0, i32 0
  %23 = load double*, double** %22, align 8
  %.not.i.i.i.i.i.i.i.i4 = icmp eq double* %23, null
  br i1 %.not.i.i.i.i.i.i.i.i4, label %_ZSt8_DestroyISt6vectorIdSaIdEEEvPT_.exit.i.i.i.i7, label %24

24:                                               ; preds = %.lr.ph.i.i.i.i5
  %25 = bitcast double* %23 to i8*
  tail call void @_ZdlPv(i8* nonnull %25) #23
  br label %_ZSt8_DestroyISt6vectorIdSaIdEEEvPT_.exit.i.i.i.i7

_ZSt8_DestroyISt6vectorIdSaIdEEEvPT_.exit.i.i.i.i7: ; preds = %24, %.lr.ph.i.i.i.i5
  %26 = getelementptr inbounds %"class.std::vector", %"class.std::vector"* %.05.i.i.i.i3, i64 1
  %.not.i.i.i.i6 = icmp eq %"class.std::vector"* %26, %21
  br i1 %.not.i.i.i.i6, label %_ZSt8_DestroyIPSt6vectorIdSaIdEES2_EvT_S4_RSaIT0_E.exit.loopexit.i9, label %.lr.ph.i.i.i.i5, !llvm.loop !6

_ZSt8_DestroyIPSt6vectorIdSaIdEES2_EvT_S4_RSaIT0_E.exit.loopexit.i9: ; preds = %_ZSt8_DestroyISt6vectorIdSaIdEEEvPT_.exit.i.i.i.i7
  %.pre.i8 = load %"class.std::vector"*, %"class.std::vector"** %18, align 8
  br label %_ZSt8_DestroyIPSt6vectorIdSaIdEES2_EvT_S4_RSaIT0_E.exit.i11

_ZSt8_DestroyIPSt6vectorIdSaIdEES2_EvT_S4_RSaIT0_E.exit.i11: ; preds = %_ZSt8_DestroyIPSt6vectorIdSaIdEES2_EvT_S4_RSaIT0_E.exit.loopexit.i9, %_ZNSt6vectorIS_IdSaIdEESaIS1_EED2Ev.exit
  %27 = phi %"class.std::vector"* [ %.pre.i8, %_ZSt8_DestroyIPSt6vectorIdSaIdEES2_EvT_S4_RSaIT0_E.exit.loopexit.i9 ], [ %19, %_ZNSt6vectorIS_IdSaIdEESaIS1_EED2Ev.exit ]
  %.not.i.i.i10 = icmp eq %"class.std::vector"* %27, null
  br i1 %.not.i.i.i10, label %_ZNSt6vectorIS_IdSaIdEESaIS1_EED2Ev.exit12, label %28

28:                                               ; preds = %_ZSt8_DestroyIPSt6vectorIdSaIdEES2_EvT_S4_RSaIT0_E.exit.i11
  %29 = bitcast %"class.std::vector"* %27 to i8*
  tail call void @_ZdlPv(i8* nonnull %29) #23
  br label %_ZNSt6vectorIS_IdSaIdEESaIS1_EED2Ev.exit12

_ZNSt6vectorIS_IdSaIdEESaIS1_EED2Ev.exit12:       ; preds = %_ZSt8_DestroyIPSt6vectorIdSaIdEES2_EvT_S4_RSaIT0_E.exit.i11, %28
  %30 = getelementptr inbounds %struct.UpdateOptData, %struct.UpdateOptData* %0, i64 0, i32 4
  %31 = getelementptr inbounds %"class.std::set", %"class.std::set"* %30, i64 0, i32 0
  %32 = getelementptr inbounds %"class.std::set", %"class.std::set"* %30, i64 0, i32 0, i32 0, i32 0, i32 0, i32 0
  %33 = getelementptr inbounds i8, i8* %32, i64 16
  %34 = bitcast i8* %33 to %"struct.std::_Rb_tree_node"**
  %35 = load %"struct.std::_Rb_tree_node"*, %"struct.std::_Rb_tree_node"** %34, align 8
  invoke void @_ZNSt8_Rb_treeIjjSt9_IdentityIjESt4lessIjESaIjEE8_M_eraseEPSt13_Rb_tree_nodeIjE(%"class.std::_Rb_tree"* nonnull align 8 dereferenceable(48) %31, %"struct.std::_Rb_tree_node"* %35)
          to label %_ZNSt3setIjSt4lessIjESaIjEED2Ev.exit unwind label %36

36:                                               ; preds = %_ZNSt6vectorIS_IdSaIdEESaIS1_EED2Ev.exit12
  %37 = landingpad { i8*, i32 }
          catch i8* null
  %38 = extractvalue { i8*, i32 } %37, 0
  tail call void @__clang_call_terminate(i8* %38) #15
  unreachable

_ZNSt3setIjSt4lessIjESaIjEED2Ev.exit:             ; preds = %_ZNSt6vectorIS_IdSaIdEESaIS1_EED2Ev.exit12
  %39 = getelementptr inbounds %struct.UpdateOptData, %struct.UpdateOptData* %0, i64 0, i32 3
  %40 = getelementptr inbounds %"class.std::set", %"class.std::set"* %39, i64 0, i32 0
  %41 = getelementptr inbounds %"class.std::set", %"class.std::set"* %39, i64 0, i32 0, i32 0, i32 0, i32 0, i32 0
  %42 = getelementptr inbounds i8, i8* %41, i64 16
  %43 = bitcast i8* %42 to %"struct.std::_Rb_tree_node"**
  %44 = load %"struct.std::_Rb_tree_node"*, %"struct.std::_Rb_tree_node"** %43, align 8
  invoke void @_ZNSt8_Rb_treeIjjSt9_IdentityIjESt4lessIjESaIjEE8_M_eraseEPSt13_Rb_tree_nodeIjE(%"class.std::_Rb_tree"* nonnull align 8 dereferenceable(48) %40, %"struct.std::_Rb_tree_node"* %44)
          to label %_ZNSt3setIjSt4lessIjESaIjEED2Ev.exit13 unwind label %45

45:                                               ; preds = %_ZNSt3setIjSt4lessIjESaIjEED2Ev.exit
  %46 = landingpad { i8*, i32 }
          catch i8* null
  %47 = extractvalue { i8*, i32 } %46, 0
  tail call void @__clang_call_terminate(i8* %47) #15
  unreachable

_ZNSt3setIjSt4lessIjESaIjEED2Ev.exit13:           ; preds = %_ZNSt3setIjSt4lessIjESaIjEED2Ev.exit
  %48 = getelementptr inbounds %struct.UpdateOptData, %struct.UpdateOptData* %0, i64 0, i32 2
  %49 = getelementptr inbounds %struct.UpdateOptData, %struct.UpdateOptData* %0, i64 0, i32 2, i32 0, i32 2, i32 0
  %50 = bitcast %"struct.std::__detail::_Hash_node_base"** %49 to %"struct.std::__detail::_Hash_node.220"**
  %51 = load %"struct.std::__detail::_Hash_node.220"*, %"struct.std::__detail::_Hash_node.220"** %50, align 8
  %.not5.i.i.i.i = icmp eq %"struct.std::__detail::_Hash_node.220"* %51, null
  br i1 %.not5.i.i.i.i, label %_ZNSt10_HashtableIPdS0_SaIS0_ENSt8__detail9_IdentityESt8equal_toIS0_ESt4hashIS0_ENS2_18_Mod_range_hashingENS2_20_Default_ranged_hashENS2_20_Prime_rehash_policyENS2_17_Hashtable_traitsILb0ELb1ELb1EEEE5clearEv.exit.i.i, label %.lr.ph.i.i.i.i15

.lr.ph.i.i.i.i15:                                 ; preds = %_ZNSt3setIjSt4lessIjESaIjEED2Ev.exit13, %.lr.ph.i.i.i.i15
  %.06.i.i.i.i = phi %"struct.std::__detail::_Hash_node.220"* [ %53, %.lr.ph.i.i.i.i15 ], [ %51, %_ZNSt3setIjSt4lessIjESaIjEED2Ev.exit13 ]
  %52 = bitcast %"struct.std::__detail::_Hash_node.220"* %.06.i.i.i.i to %"struct.std::__detail::_Hash_node.220"**
  %53 = load %"struct.std::__detail::_Hash_node.220"*, %"struct.std::__detail::_Hash_node.220"** %52, align 8
  %54 = bitcast %"struct.std::__detail::_Hash_node.220"* %.06.i.i.i.i to i8*
  tail call void @_ZdlPv(i8* nonnull %54) #23
  %.not.i.i.i.i14 = icmp eq %"struct.std::__detail::_Hash_node.220"* %53, null
  br i1 %.not.i.i.i.i14, label %_ZNSt10_HashtableIPdS0_SaIS0_ENSt8__detail9_IdentityESt8equal_toIS0_ESt4hashIS0_ENS2_18_Mod_range_hashingENS2_20_Default_ranged_hashENS2_20_Prime_rehash_policyENS2_17_Hashtable_traitsILb0ELb1ELb1EEEE5clearEv.exit.i.i, label %.lr.ph.i.i.i.i15, !llvm.loop !7

_ZNSt10_HashtableIPdS0_SaIS0_ENSt8__detail9_IdentityESt8equal_toIS0_ESt4hashIS0_ENS2_18_Mod_range_hashingENS2_20_Default_ranged_hashENS2_20_Prime_rehash_policyENS2_17_Hashtable_traitsILb0ELb1ELb1EEEE5clearEv.exit.i.i: ; preds = %.lr.ph.i.i.i.i15, %_ZNSt3setIjSt4lessIjESaIjEED2Ev.exit13
  %55 = bitcast %"class.std::unordered_set"* %48 to i8**
  %56 = load i8*, i8** %55, align 8
  %57 = getelementptr inbounds %struct.UpdateOptData, %struct.UpdateOptData* %0, i64 0, i32 2, i32 0, i32 1
  %58 = load i64, i64* %57, align 8
  %59 = shl i64 %58, 3
  tail call void @llvm.memset.p0i8.i64(i8* align 8 %56, i8 0, i64 %59, i1 false) #23
  %60 = bitcast %"struct.std::__detail::_Hash_node_base"** %49 to i8*
  tail call void @llvm.memset.p0i8.i64(i8* noundef nonnull align 8 dereferenceable(16) %60, i8 0, i64 16, i1 false) #23
  %61 = getelementptr inbounds %"class.std::unordered_set", %"class.std::unordered_set"* %48, i64 0, i32 0, i32 0
  %62 = load %"struct.std::__detail::_Hash_node_base"**, %"struct.std::__detail::_Hash_node_base"*** %61, align 8
  %63 = getelementptr inbounds %struct.UpdateOptData, %struct.UpdateOptData* %0, i64 0, i32 2, i32 0, i32 5
  %64 = icmp eq %"struct.std::__detail::_Hash_node_base"** %63, %62
  br i1 %64, label %_ZNSt13unordered_setIPdSt4hashIS0_ESt8equal_toIS0_ESaIS0_EED2Ev.exit, label %65

65:                                               ; preds = %_ZNSt10_HashtableIPdS0_SaIS0_ENSt8__detail9_IdentityESt8equal_toIS0_ESt4hashIS0_ENS2_18_Mod_range_hashingENS2_20_Default_ranged_hashENS2_20_Prime_rehash_policyENS2_17_Hashtable_traitsILb0ELb1ELb1EEEE5clearEv.exit.i.i
  %66 = bitcast %"struct.std::__detail::_Hash_node_base"** %62 to i8*
  tail call void @_ZdlPv(i8* %66) #23
  br label %_ZNSt13unordered_setIPdSt4hashIS0_ESt8equal_toIS0_ESaIS0_EED2Ev.exit

_ZNSt13unordered_setIPdSt4hashIS0_ESt8equal_toIS0_ESaIS0_EED2Ev.exit: ; preds = %_ZNSt10_HashtableIPdS0_SaIS0_ENSt8__detail9_IdentityESt8equal_toIS0_ESt4hashIS0_ENS2_18_Mod_range_hashingENS2_20_Default_ranged_hashENS2_20_Prime_rehash_policyENS2_17_Hashtable_traitsILb0ELb1ELb1EEEE5clearEv.exit.i.i, %65
  %67 = getelementptr inbounds %struct.UpdateOptData, %struct.UpdateOptData* %0, i64 0, i32 1
  %68 = getelementptr inbounds %struct.UpdateOptData, %struct.UpdateOptData* %0, i64 0, i32 1, i32 0, i32 2, i32 0
  %69 = bitcast %"struct.std::__detail::_Hash_node_base"** %68 to %"struct.std::__detail::_Hash_node.233"**
  %70 = load %"struct.std::__detail::_Hash_node.233"*, %"struct.std::__detail::_Hash_node.233"** %69, align 8
  %.not5.i.i.i.i16 = icmp eq %"struct.std::__detail::_Hash_node.233"* %70, null
  br i1 %.not5.i.i.i.i16, label %_ZNSt10_HashtableIjSt4pairIKjPdESaIS3_ENSt8__detail10_Select1stESt8equal_toIjESt4hashIjENS5_18_Mod_range_hashingENS5_20_Default_ranged_hashENS5_20_Prime_rehash_policyENS5_17_Hashtable_traitsILb0ELb0ELb1EEEE5clearEv.exit.i.i, label %.lr.ph.i.i.i.i19

.lr.ph.i.i.i.i19:                                 ; preds = %_ZNSt13unordered_setIPdSt4hashIS0_ESt8equal_toIS0_ESaIS0_EED2Ev.exit, %.lr.ph.i.i.i.i19
  %.06.i.i.i.i17 = phi %"struct.std::__detail::_Hash_node.233"* [ %72, %.lr.ph.i.i.i.i19 ], [ %70, %_ZNSt13unordered_setIPdSt4hashIS0_ESt8equal_toIS0_ESaIS0_EED2Ev.exit ]
  %71 = bitcast %"struct.std::__detail::_Hash_node.233"* %.06.i.i.i.i17 to %"struct.std::__detail::_Hash_node.233"**
  %72 = load %"struct.std::__detail::_Hash_node.233"*, %"struct.std::__detail::_Hash_node.233"** %71, align 8
  %73 = bitcast %"struct.std::__detail::_Hash_node.233"* %.06.i.i.i.i17 to i8*
  tail call void @_ZdlPv(i8* nonnull %73) #23
  %.not.i.i.i.i18 = icmp eq %"struct.std::__detail::_Hash_node.233"* %72, null
  br i1 %.not.i.i.i.i18, label %_ZNSt10_HashtableIjSt4pairIKjPdESaIS3_ENSt8__detail10_Select1stESt8equal_toIjESt4hashIjENS5_18_Mod_range_hashingENS5_20_Default_ranged_hashENS5_20_Prime_rehash_policyENS5_17_Hashtable_traitsILb0ELb0ELb1EEEE5clearEv.exit.i.i, label %.lr.ph.i.i.i.i19, !llvm.loop !8

_ZNSt10_HashtableIjSt4pairIKjPdESaIS3_ENSt8__detail10_Select1stESt8equal_toIjESt4hashIjENS5_18_Mod_range_hashingENS5_20_Default_ranged_hashENS5_20_Prime_rehash_policyENS5_17_Hashtable_traitsILb0ELb0ELb1EEEE5clearEv.exit.i.i: ; preds = %.lr.ph.i.i.i.i19, %_ZNSt13unordered_setIPdSt4hashIS0_ESt8equal_toIS0_ESaIS0_EED2Ev.exit
  %74 = bitcast %"class.std::unordered_map.29"* %67 to i8**
  %75 = load i8*, i8** %74, align 8
  %76 = getelementptr inbounds %struct.UpdateOptData, %struct.UpdateOptData* %0, i64 0, i32 1, i32 0, i32 1
  %77 = load i64, i64* %76, align 8
  %78 = shl i64 %77, 3
  tail call void @llvm.memset.p0i8.i64(i8* align 8 %75, i8 0, i64 %78, i1 false) #23
  %79 = bitcast %"struct.std::__detail::_Hash_node_base"** %68 to i8*
  tail call void @llvm.memset.p0i8.i64(i8* noundef nonnull align 8 dereferenceable(16) %79, i8 0, i64 16, i1 false) #23
  %80 = getelementptr inbounds %"class.std::unordered_map.29", %"class.std::unordered_map.29"* %67, i64 0, i32 0, i32 0
  %81 = load %"struct.std::__detail::_Hash_node_base"**, %"struct.std::__detail::_Hash_node_base"*** %80, align 8
  %82 = getelementptr inbounds %struct.UpdateOptData, %struct.UpdateOptData* %0, i64 0, i32 1, i32 0, i32 5
  %83 = icmp eq %"struct.std::__detail::_Hash_node_base"** %82, %81
  br i1 %83, label %_ZNSt13unordered_mapIjPdSt4hashIjESt8equal_toIjESaISt4pairIKjS0_EEED2Ev.exit, label %84

84:                                               ; preds = %_ZNSt10_HashtableIjSt4pairIKjPdESaIS3_ENSt8__detail10_Select1stESt8equal_toIjESt4hashIjENS5_18_Mod_range_hashingENS5_20_Default_ranged_hashENS5_20_Prime_rehash_policyENS5_17_Hashtable_traitsILb0ELb0ELb1EEEE5clearEv.exit.i.i
  %85 = bitcast %"struct.std::__detail::_Hash_node_base"** %81 to i8*
  tail call void @_ZdlPv(i8* %85) #23
  br label %_ZNSt13unordered_mapIjPdSt4hashIjESt8equal_toIjESaISt4pairIKjS0_EEED2Ev.exit

_ZNSt13unordered_mapIjPdSt4hashIjESt8equal_toIjESaISt4pairIKjS0_EEED2Ev.exit: ; preds = %_ZNSt10_HashtableIjSt4pairIKjPdESaIS3_ENSt8__detail10_Select1stESt8equal_toIjESt4hashIjENS5_18_Mod_range_hashingENS5_20_Default_ranged_hashENS5_20_Prime_rehash_policyENS5_17_Hashtable_traitsILb0ELb0ELb1EEEE5clearEv.exit.i.i, %84
  %86 = getelementptr inbounds %struct.UpdateOptData, %struct.UpdateOptData* %0, i64 0, i32 0, i32 0, i32 2, i32 0
  %87 = bitcast %"struct.std::__detail::_Hash_node_base"** %86 to %"struct.std::__detail::_Hash_node.210"**
  %88 = load %"struct.std::__detail::_Hash_node.210"*, %"struct.std::__detail::_Hash_node.210"** %87, align 8
  %.not5.i.i.i.i20 = icmp eq %"struct.std::__detail::_Hash_node.210"* %88, null
  br i1 %.not5.i.i.i.i20, label %_ZNSt10_HashtableIPdSt4pairIKS0_jESaIS3_ENSt8__detail10_Select1stESt8equal_toIS0_ESt4hashIS0_ENS5_18_Mod_range_hashingENS5_20_Default_ranged_hashENS5_20_Prime_rehash_policyENS5_17_Hashtable_traitsILb0ELb0ELb1EEEE5clearEv.exit.i.i, label %.lr.ph.i.i.i.i23

.lr.ph.i.i.i.i23:                                 ; preds = %_ZNSt13unordered_mapIjPdSt4hashIjESt8equal_toIjESaISt4pairIKjS0_EEED2Ev.exit, %.lr.ph.i.i.i.i23
  %.06.i.i.i.i21 = phi %"struct.std::__detail::_Hash_node.210"* [ %90, %.lr.ph.i.i.i.i23 ], [ %88, %_ZNSt13unordered_mapIjPdSt4hashIjESt8equal_toIjESaISt4pairIKjS0_EEED2Ev.exit ]
  %89 = bitcast %"struct.std::__detail::_Hash_node.210"* %.06.i.i.i.i21 to %"struct.std::__detail::_Hash_node.210"**
  %90 = load %"struct.std::__detail::_Hash_node.210"*, %"struct.std::__detail::_Hash_node.210"** %89, align 8
  %91 = bitcast %"struct.std::__detail::_Hash_node.210"* %.06.i.i.i.i21 to i8*
  tail call void @_ZdlPv(i8* nonnull %91) #23
  %.not.i.i.i.i22 = icmp eq %"struct.std::__detail::_Hash_node.210"* %90, null
  br i1 %.not.i.i.i.i22, label %_ZNSt10_HashtableIPdSt4pairIKS0_jESaIS3_ENSt8__detail10_Select1stESt8equal_toIS0_ESt4hashIS0_ENS5_18_Mod_range_hashingENS5_20_Default_ranged_hashENS5_20_Prime_rehash_policyENS5_17_Hashtable_traitsILb0ELb0ELb1EEEE5clearEv.exit.i.i, label %.lr.ph.i.i.i.i23, !llvm.loop !9

_ZNSt10_HashtableIPdSt4pairIKS0_jESaIS3_ENSt8__detail10_Select1stESt8equal_toIS0_ESt4hashIS0_ENS5_18_Mod_range_hashingENS5_20_Default_ranged_hashENS5_20_Prime_rehash_policyENS5_17_Hashtable_traitsILb0ELb0ELb1EEEE5clearEv.exit.i.i: ; preds = %.lr.ph.i.i.i.i23, %_ZNSt13unordered_mapIjPdSt4hashIjESt8equal_toIjESaISt4pairIKjS0_EEED2Ev.exit
  %92 = bitcast %struct.UpdateOptData* %0 to i8**
  %93 = load i8*, i8** %92, align 8
  %94 = getelementptr inbounds %struct.UpdateOptData, %struct.UpdateOptData* %0, i64 0, i32 0, i32 0, i32 1
  %95 = load i64, i64* %94, align 8
  %96 = shl i64 %95, 3
  tail call void @llvm.memset.p0i8.i64(i8* align 8 %93, i8 0, i64 %96, i1 false) #23
  %97 = bitcast %"struct.std::__detail::_Hash_node_base"** %86 to i8*
  tail call void @llvm.memset.p0i8.i64(i8* noundef nonnull align 8 dereferenceable(16) %97, i8 0, i64 16, i1 false) #23
  %98 = getelementptr inbounds %struct.UpdateOptData, %struct.UpdateOptData* %0, i64 0, i32 0, i32 0, i32 0
  %99 = load %"struct.std::__detail::_Hash_node_base"**, %"struct.std::__detail::_Hash_node_base"*** %98, align 8
  %100 = getelementptr inbounds %struct.UpdateOptData, %struct.UpdateOptData* %0, i64 0, i32 0, i32 0, i32 5
  %101 = icmp eq %"struct.std::__detail::_Hash_node_base"** %100, %99
  br i1 %101, label %_ZNSt13unordered_mapIPdjSt4hashIS0_ESt8equal_toIS0_ESaISt4pairIKS0_jEEED2Ev.exit, label %102

102:                                              ; preds = %_ZNSt10_HashtableIPdSt4pairIKS0_jESaIS3_ENSt8__detail10_Select1stESt8equal_toIS0_ESt4hashIS0_ENS5_18_Mod_range_hashingENS5_20_Default_ranged_hashENS5_20_Prime_rehash_policyENS5_17_Hashtable_traitsILb0ELb0ELb1EEEE5clearEv.exit.i.i
  %103 = bitcast %"struct.std::__detail::_Hash_node_base"** %99 to i8*
  tail call void @_ZdlPv(i8* %103) #23
  br label %_ZNSt13unordered_mapIPdjSt4hashIS0_ESt8equal_toIS0_ESaISt4pairIKS0_jEEED2Ev.exit

_ZNSt13unordered_mapIPdjSt4hashIS0_ESt8equal_toIS0_ESaISt4pairIKS0_jEEED2Ev.exit: ; preds = %_ZNSt10_HashtableIPdSt4pairIKS0_jESaIS3_ENSt8__detail10_Select1stESt8equal_toIS0_ESt4hashIS0_ENS5_18_Mod_range_hashingENS5_20_Default_ranged_hashENS5_20_Prime_rehash_policyENS5_17_Hashtable_traitsILb0ELb0ELb1EEEE5clearEv.exit.i.i, %102
  ret void
}

; Function Attrs: nounwind uwtable
define linkonce_odr dso_local void @_ZNSt13unordered_mapIi13UpdateOptDataSt4hashIiESt8equal_toIiESaISt4pairIKiS0_EEED2Ev(%"class.std::unordered_map.64"* nonnull align 8 dereferenceable(56) %0) unnamed_addr #3 comdat align 2 personality i32 (...)* @__gxx_personality_v0 {
  %2 = getelementptr inbounds %"class.std::unordered_map.64", %"class.std::unordered_map.64"* %0, i64 0, i32 0, i32 2, i32 0
  %3 = bitcast %"struct.std::__detail::_Hash_node_base"** %2 to %"struct.std::__detail::_Hash_node.202"**
  %4 = load %"struct.std::__detail::_Hash_node.202"*, %"struct.std::__detail::_Hash_node.202"** %3, align 8
  %.not5.i.i.i = icmp eq %"struct.std::__detail::_Hash_node.202"* %4, null
  br i1 %.not5.i.i.i, label %_ZNSt10_HashtableIiSt4pairIKi13UpdateOptDataESaIS3_ENSt8__detail10_Select1stESt8equal_toIiESt4hashIiENS5_18_Mod_range_hashingENS5_20_Default_ranged_hashENS5_20_Prime_rehash_policyENS5_17_Hashtable_traitsILb0ELb0ELb1EEEE5clearEv.exit.i, label %.lr.ph.i.i.i

.lr.ph.i.i.i:                                     ; preds = %1, %.lr.ph.i.i.i
  %.06.i.i.i = phi %"struct.std::__detail::_Hash_node.202"* [ %6, %.lr.ph.i.i.i ], [ %4, %1 ]
  %5 = bitcast %"struct.std::__detail::_Hash_node.202"* %.06.i.i.i to %"struct.std::__detail::_Hash_node.202"**
  %6 = load %"struct.std::__detail::_Hash_node.202"*, %"struct.std::__detail::_Hash_node.202"** %5, align 8
  %7 = getelementptr inbounds %"struct.std::__detail::_Hash_node.202", %"struct.std::__detail::_Hash_node.202"* %.06.i.i.i, i64 0, i32 1, i32 0, i32 0, i32 0, i32 0, i64 8
  %8 = bitcast i8* %7 to %struct.UpdateOptData*
  tail call void @_ZN13UpdateOptDataD2Ev(%struct.UpdateOptData* nonnull align 8 dereferenceable(336) %8) #23
  %9 = bitcast %"struct.std::__detail::_Hash_node.202"* %.06.i.i.i to i8*
  tail call void @_ZdlPv(i8* nonnull %9) #23
  %.not.i.i.i = icmp eq %"struct.std::__detail::_Hash_node.202"* %6, null
  br i1 %.not.i.i.i, label %_ZNSt10_HashtableIiSt4pairIKi13UpdateOptDataESaIS3_ENSt8__detail10_Select1stESt8equal_toIiESt4hashIiENS5_18_Mod_range_hashingENS5_20_Default_ranged_hashENS5_20_Prime_rehash_policyENS5_17_Hashtable_traitsILb0ELb0ELb1EEEE5clearEv.exit.i, label %.lr.ph.i.i.i, !llvm.loop !10

_ZNSt10_HashtableIiSt4pairIKi13UpdateOptDataESaIS3_ENSt8__detail10_Select1stESt8equal_toIiESt4hashIiENS5_18_Mod_range_hashingENS5_20_Default_ranged_hashENS5_20_Prime_rehash_policyENS5_17_Hashtable_traitsILb0ELb0ELb1EEEE5clearEv.exit.i: ; preds = %.lr.ph.i.i.i, %1
  %10 = bitcast %"class.std::unordered_map.64"* %0 to i8**
  %11 = load i8*, i8** %10, align 8
  %12 = getelementptr inbounds %"class.std::unordered_map.64", %"class.std::unordered_map.64"* %0, i64 0, i32 0, i32 1
  %13 = load i64, i64* %12, align 8
  %14 = shl i64 %13, 3
  tail call void @llvm.memset.p0i8.i64(i8* align 8 %11, i8 0, i64 %14, i1 false) #23
  %15 = bitcast %"struct.std::__detail::_Hash_node_base"** %2 to i8*
  tail call void @llvm.memset.p0i8.i64(i8* noundef nonnull align 8 dereferenceable(16) %15, i8 0, i64 16, i1 false) #23
  %16 = getelementptr inbounds %"class.std::unordered_map.64", %"class.std::unordered_map.64"* %0, i64 0, i32 0, i32 0
  %17 = load %"struct.std::__detail::_Hash_node_base"**, %"struct.std::__detail::_Hash_node_base"*** %16, align 8
  %18 = getelementptr inbounds %"class.std::unordered_map.64", %"class.std::unordered_map.64"* %0, i64 0, i32 0, i32 5
  %19 = icmp eq %"struct.std::__detail::_Hash_node_base"** %18, %17
  br i1 %19, label %_ZNSt10_HashtableIiSt4pairIKi13UpdateOptDataESaIS3_ENSt8__detail10_Select1stESt8equal_toIiESt4hashIiENS5_18_Mod_range_hashingENS5_20_Default_ranged_hashENS5_20_Prime_rehash_policyENS5_17_Hashtable_traitsILb0ELb0ELb1EEEED2Ev.exit, label %20

20:                                               ; preds = %_ZNSt10_HashtableIiSt4pairIKi13UpdateOptDataESaIS3_ENSt8__detail10_Select1stESt8equal_toIiESt4hashIiENS5_18_Mod_range_hashingENS5_20_Default_ranged_hashENS5_20_Prime_rehash_policyENS5_17_Hashtable_traitsILb0ELb0ELb1EEEE5clearEv.exit.i
  %21 = bitcast %"struct.std::__detail::_Hash_node_base"** %17 to i8*
  tail call void @_ZdlPv(i8* %21) #23
  br label %_ZNSt10_HashtableIiSt4pairIKi13UpdateOptDataESaIS3_ENSt8__detail10_Select1stESt8equal_toIiESt4hashIiENS5_18_Mod_range_hashingENS5_20_Default_ranged_hashENS5_20_Prime_rehash_policyENS5_17_Hashtable_traitsILb0ELb0ELb1EEEED2Ev.exit

_ZNSt10_HashtableIiSt4pairIKi13UpdateOptDataESaIS3_ENSt8__detail10_Select1stESt8equal_toIiESt4hashIiENS5_18_Mod_range_hashingENS5_20_Default_ranged_hashENS5_20_Prime_rehash_policyENS5_17_Hashtable_traitsILb0ELb0ELb1EEEED2Ev.exit: ; preds = %_ZNSt10_HashtableIiSt4pairIKi13UpdateOptDataESaIS3_ENSt8__detail10_Select1stESt8equal_toIiESt4hashIiENS5_18_Mod_range_hashingENS5_20_Default_ranged_hashENS5_20_Prime_rehash_policyENS5_17_Hashtable_traitsILb0ELb0ELb1EEEE5clearEv.exit.i, %20
  ret void
}

; Function Attrs: mustprogress nofree norecurse nosync nounwind readnone uwtable willreturn
define dso_local double @fadd_op_l(double %0, double %1) local_unnamed_addr #4 {
  ret double 1.000000e+00
}

; Function Attrs: mustprogress nofree norecurse nosync nounwind readnone uwtable willreturn
define dso_local double @fadd_op_r(double %0, double %1) local_unnamed_addr #4 {
  ret double 1.000000e+00
}

; Function Attrs: mustprogress nofree norecurse nosync nounwind readnone uwtable willreturn
define dso_local double @fsub_op_l(double %0, double %1) local_unnamed_addr #4 {
  ret double 1.000000e+00
}

; Function Attrs: mustprogress nofree norecurse nosync nounwind readnone uwtable willreturn
define dso_local double @fsub_op_r(double %0, double %1) local_unnamed_addr #4 {
  ret double -1.000000e+00
}

; Function Attrs: mustprogress nofree norecurse nosync nounwind readnone uwtable willreturn
define dso_local double @fmul_op_l(double %0, double returned %1) local_unnamed_addr #4 {
  ret double %1
}

; Function Attrs: mustprogress nofree norecurse nosync nounwind readnone uwtable willreturn
define dso_local double @fmul_op_r(double returned %0, double %1) local_unnamed_addr #4 {
  ret double %0
}

; Function Attrs: mustprogress nofree norecurse nosync nounwind readnone uwtable willreturn
define dso_local double @fdiv_op_l(double %0, double %1) local_unnamed_addr #4 {
  %3 = fdiv double 1.000000e+00, %1
  ret double %3
}

; Function Attrs: mustprogress nofree norecurse nosync nounwind readnone uwtable willreturn
define dso_local double @fdiv_op_r(double %0, double %1) local_unnamed_addr #4 {
  %3 = fmul double %1, %1
  %4 = fdiv double -1.000000e+00, %3
  %5 = fmul double %4, %0
  ret double %5
}

; Function Attrs: mustprogress nofree norecurse nosync nounwind readnone uwtable willreturn
define dso_local double @fabs_diff(double %0, double %1) local_unnamed_addr #4 {
  %3 = fcmp ogt double %0, 0.000000e+00
  %4 = fcmp olt double %0, 0.000000e+00
  %. = select i1 %4, double -1.000000e+00, double 0.000000e+00
  %.0 = select i1 %3, double 1.000000e+00, double %.
  ret double %.0
}

; Function Attrs: mustprogress nofree nosync nounwind readnone uwtable willreturn
define dso_local double @fsqrt_diff(double %0, double %1) local_unnamed_addr #5 {
  %3 = tail call double @llvm.sqrt.f64(double %0)
  %4 = fdiv double 5.000000e-01, %3
  ret double %4
}

; Function Attrs: mustprogress nofree nosync nounwind readnone speculatable willreturn
declare double @llvm.sqrt.f64(double) #6

; Function Attrs: mustprogress nofree nosync nounwind readnone uwtable willreturn
define dso_local double @fsin_diff(double %0, double %1) local_unnamed_addr #5 {
  %3 = tail call double @llvm.cos.f64(double %0)
  ret double %3
}

; Function Attrs: mustprogress nofree nosync nounwind readnone speculatable willreturn
declare double @llvm.cos.f64(double) #6

; Function Attrs: mustprogress nofree nosync nounwind readnone uwtable willreturn
define dso_local double @facos_diff(double %0, double %1) local_unnamed_addr #5 {
  %3 = fsub double 1.000000e+00, %0
  %4 = tail call double @llvm.sqrt.f64(double %3)
  %5 = fdiv double -1.000000e+00, %4
  ret double %5
}

; Function Attrs: mustprogress nofree norecurse nosync nounwind readnone uwtable willreturn
define dso_local double @flog_diff(double %0, double %1) local_unnamed_addr #4 {
  %3 = fdiv double 1.000000e+00, %0
  ret double %3
}

; Function Attrs: mustprogress nofree norecurse nosync nounwind readnone uwtable willreturn
define dso_local double @fneg_diff(double %0, double %1) local_unnamed_addr #4 {
  ret double -1.000000e+00
}

; Function Attrs: mustprogress nofree nosync nounwind readnone uwtable willreturn
define dso_local double @fexp_diff(double %0, double %1) local_unnamed_addr #5 {
  %3 = tail call double @llvm.exp.f64(double %0)
  ret double %3
}

; Function Attrs: mustprogress nofree nosync nounwind readnone speculatable willreturn
declare double @llvm.exp.f64(double) #6

; Function Attrs: uwtable
define dso_local void @saesp_analysis_entry(double* %0, double %1, float %2, i32 %3, ...) local_unnamed_addr #7 personality i32 (...)* @__gxx_personality_v0 {
  %5 = alloca [1 x %struct.__va_list_tag], align 16
  %.not = icmp eq double* %0, null
  br i1 %.not, label %.critedge, label %6

6:                                                ; preds = %4
  %7 = ptrtoint double* %0 to i64
  %8 = load i64, i64* getelementptr inbounds (%"class.std::unordered_map.84", %"class.std::unordered_map.84"* @ptrToEPMidx, i64 0, i32 0, i32 1), align 8
  %9 = urem i64 %7, %8
  %10 = load %"struct.std::__detail::_Hash_node_base"**, %"struct.std::__detail::_Hash_node_base"*** getelementptr inbounds (%"class.std::unordered_map.84", %"class.std::unordered_map.84"* @ptrToEPMidx, i64 0, i32 0, i32 0), align 8
  %11 = getelementptr inbounds %"struct.std::__detail::_Hash_node_base"*, %"struct.std::__detail::_Hash_node_base"** %10, i64 %9
  %12 = load %"struct.std::__detail::_Hash_node_base"*, %"struct.std::__detail::_Hash_node_base"** %11, align 8
  %.not.i.i.i.i = icmp eq %"struct.std::__detail::_Hash_node_base"* %12, null
  br i1 %.not.i.i.i.i, label %_ZNSt13unordered_mapIPdSt4pairIjjESt4hashIS0_ESt8equal_toIS0_ESaIS1_IKS0_S2_EEE4findERS7_.exit.thread, label %13

13:                                               ; preds = %6
  %14 = bitcast %"struct.std::__detail::_Hash_node_base"* %12 to %"struct.std::__detail::_Hash_node"**
  %15 = load %"struct.std::__detail::_Hash_node"*, %"struct.std::__detail::_Hash_node"** %14, align 8
  %16 = getelementptr inbounds %"struct.std::__detail::_Hash_node", %"struct.std::__detail::_Hash_node"* %15, i64 0, i32 1, i32 0, i32 0, i32 0, i32 0, i64 0
  %17 = bitcast i8* %16 to double**
  %18 = load double*, double** %17, align 8
  %19 = icmp eq double* %18, %0
  br i1 %19, label %.critedge, label %.lr.ph.i.i.i.i

20:                                               ; preds = %25
  %21 = icmp eq double* %28, %0
  br i1 %21, label %.critedge, label %.lr.ph.i.i.i.i, !llvm.loop !11

.lr.ph.i.i.i.i:                                   ; preds = %13, %20
  %.018.i.i.i.i = phi %"struct.std::__detail::_Hash_node"* [ %24, %20 ], [ %15, %13 ]
  %22 = getelementptr inbounds %"struct.std::__detail::_Hash_node", %"struct.std::__detail::_Hash_node"* %.018.i.i.i.i, i64 0, i32 0, i32 0
  %23 = load %"struct.std::__detail::_Hash_node_base"*, %"struct.std::__detail::_Hash_node_base"** %22, align 8
  %.not16.i.i.i.i = icmp eq %"struct.std::__detail::_Hash_node_base"* %23, null
  %24 = bitcast %"struct.std::__detail::_Hash_node_base"* %23 to %"struct.std::__detail::_Hash_node"*
  br i1 %.not16.i.i.i.i, label %_ZNSt13unordered_mapIPdSt4pairIjjESt4hashIS0_ESt8equal_toIS0_ESaIS1_IKS0_S2_EEE4findERS7_.exit.thread, label %25

25:                                               ; preds = %.lr.ph.i.i.i.i
  %26 = getelementptr inbounds %"struct.std::__detail::_Hash_node_base", %"struct.std::__detail::_Hash_node_base"* %23, i64 1
  %27 = bitcast %"struct.std::__detail::_Hash_node_base"* %26 to double**
  %28 = load double*, double** %27, align 8
  %29 = ptrtoint double* %28 to i64
  %30 = urem i64 %29, %8
  %.not17.i.i.i.i = icmp eq i64 %30, %9
  br i1 %.not17.i.i.i.i, label %20, label %_ZNSt13unordered_mapIPdSt4pairIjjESt4hashIS0_ESt8equal_toIS0_ESaIS1_IKS0_S2_EEE4findERS7_.exit.thread, !llvm.loop !11

.critedge:                                        ; preds = %20, %13, %4
  %31 = bitcast [1 x %struct.__va_list_tag]* %5 to i8*
  call void @llvm.va_start(i8* nonnull %31)
  %32 = load double*, double** getelementptr inbounds (%"class.std::vector", %"class.std::vector"* @new_row, i64 0, i32 0, i32 0, i32 0, i32 0), align 16
  %33 = load double*, double** getelementptr inbounds (%"class.std::vector", %"class.std::vector"* @new_row, i64 0, i32 0, i32 0, i32 0, i32 1), align 8
  %.not5.i.i.i.i = icmp eq double* %32, %33
  br i1 %.not5.i.i.i.i, label %_ZSt4fillIN9__gnu_cxx17__normal_iteratorIPdSt6vectorIdSaIdEEEEiEvT_S7_RKT0_.exit, label %.lr.ph.i.i.i.i21.preheader

.lr.ph.i.i.i.i21.preheader:                       ; preds = %.critedge
  %34 = ptrtoint double* %33 to i64
  %35 = ptrtoint double* %32 to i64
  %36 = bitcast double* %32 to i8*
  %37 = add i64 %34, -8
  %38 = sub i64 %37, %35
  %39 = add i64 %38, 8
  %40 = and i64 %39, -8
  call void @llvm.memset.p0i8.i64(i8* align 8 %36, i8 0, i64 %40, i1 false)
  br label %_ZSt4fillIN9__gnu_cxx17__normal_iteratorIPdSt6vectorIdSaIdEEEEiEvT_S7_RKT0_.exit

_ZSt4fillIN9__gnu_cxx17__normal_iteratorIPdSt6vectorIdSaIdEEEEiEvT_S7_RKT0_.exit: ; preds = %.lr.ph.i.i.i.i21.preheader, %.critedge
  %41 = getelementptr inbounds [1 x %struct.__va_list_tag], [1 x %struct.__va_list_tag]* %5, i64 0, i64 0, i32 0
  %42 = getelementptr inbounds [1 x %struct.__va_list_tag], [1 x %struct.__va_list_tag]* %5, i64 0, i64 0, i32 2
  %43 = getelementptr inbounds [1 x %struct.__va_list_tag], [1 x %struct.__va_list_tag]* %5, i64 0, i64 0, i32 3
  %44 = getelementptr inbounds [1 x %struct.__va_list_tag], [1 x %struct.__va_list_tag]* %5, i64 0, i64 0, i32 1
  %.not71 = icmp eq i32 %3, 0
  br i1 %.not71, label %._crit_edge, label %.lr.ph69

.lr.ph69:                                         ; preds = %_ZSt4fillIN9__gnu_cxx17__normal_iteratorIPdSt6vectorIdSaIdEEEEiEvT_S7_RKT0_.exit, %_ZNSt13unordered_mapIPdSt4pairIjjESt4hashIS0_ESt8equal_toIS0_ESaIS1_IKS0_S2_EEE4findERS7_.exit29.thread
  %.068 = phi i32 [ %135, %_ZNSt13unordered_mapIPdSt4pairIjjESt4hashIS0_ESt8equal_toIS0_ESaIS1_IKS0_S2_EEE4findERS7_.exit29.thread ], [ 0, %_ZSt4fillIN9__gnu_cxx17__normal_iteratorIPdSt6vectorIdSaIdEEEEiEvT_S7_RKT0_.exit ]
  %45 = load i32, i32* %41, align 16
  %46 = icmp ult i32 %45, 41
  br i1 %46, label %47, label %52

47:                                               ; preds = %.lr.ph69
  %48 = load i8*, i8** %43, align 16
  %49 = zext i32 %45 to i64
  %50 = getelementptr i8, i8* %48, i64 %49
  %51 = add nuw nsw i32 %45, 8
  store i32 %51, i32* %41, align 16
  br label %55

52:                                               ; preds = %.lr.ph69
  %53 = load i8*, i8** %42, align 8
  %54 = getelementptr i8, i8* %53, i64 8
  store i8* %54, i8** %42, align 8
  br label %55

55:                                               ; preds = %52, %47
  %.in = phi i8* [ %50, %47 ], [ %53, %52 ]
  %56 = bitcast i8* %.in to double**
  %57 = load double*, double** %56, align 8
  %58 = load i32, i32* %44, align 4
  %59 = icmp ult i32 %58, 161
  br i1 %59, label %60, label %65

60:                                               ; preds = %55
  %61 = load i8*, i8** %43, align 16
  %62 = zext i32 %58 to i64
  %63 = getelementptr i8, i8* %61, i64 %62
  %64 = add nuw nsw i32 %58, 16
  store i32 %64, i32* %44, align 4
  br label %68

65:                                               ; preds = %55
  %66 = load i8*, i8** %42, align 8
  %67 = getelementptr i8, i8* %66, i64 8
  store i8* %67, i8** %42, align 8
  br label %68

68:                                               ; preds = %65, %60
  %.in19 = phi i8* [ %63, %60 ], [ %66, %65 ]
  %69 = bitcast i8* %.in19 to double*
  %70 = load double, double* %69, align 8
  %71 = ptrtoint double* %57 to i64
  %72 = load i64, i64* getelementptr inbounds (%"class.std::unordered_map.84", %"class.std::unordered_map.84"* @ptrToEPMidx, i64 0, i32 0, i32 1), align 8
  %73 = urem i64 %71, %72
  %74 = load %"struct.std::__detail::_Hash_node_base"**, %"struct.std::__detail::_Hash_node_base"*** getelementptr inbounds (%"class.std::unordered_map.84", %"class.std::unordered_map.84"* @ptrToEPMidx, i64 0, i32 0, i32 0), align 8
  %75 = getelementptr inbounds %"struct.std::__detail::_Hash_node_base"*, %"struct.std::__detail::_Hash_node_base"** %74, i64 %73
  %76 = load %"struct.std::__detail::_Hash_node_base"*, %"struct.std::__detail::_Hash_node_base"** %75, align 8
  %.not.i.i.i.i22 = icmp eq %"struct.std::__detail::_Hash_node_base"* %76, null
  br i1 %.not.i.i.i.i22, label %_ZNSt13unordered_mapIPdSt4pairIjjESt4hashIS0_ESt8equal_toIS0_ESaIS1_IKS0_S2_EEE4findERS7_.exit29.thread, label %77

77:                                               ; preds = %68
  %78 = bitcast %"struct.std::__detail::_Hash_node_base"* %76 to %"struct.std::__detail::_Hash_node"**
  %79 = load %"struct.std::__detail::_Hash_node"*, %"struct.std::__detail::_Hash_node"** %78, align 8
  %80 = getelementptr inbounds %"struct.std::__detail::_Hash_node", %"struct.std::__detail::_Hash_node"* %79, i64 0, i32 1, i32 0, i32 0, i32 0, i32 0, i64 0
  %81 = bitcast i8* %80 to double**
  %82 = load double*, double** %81, align 8
  %83 = icmp eq double* %57, %82
  br i1 %83, label %_ZNSt13unordered_mapIPdSt4pairIjjESt4hashIS0_ESt8equal_toIS0_ESaIS1_IKS0_S2_EEEixERS7_.exit, label %.lr.ph.i.i.i.i25

84:                                               ; preds = %89
  %85 = icmp eq double* %57, %92
  br i1 %85, label %_ZNSt13unordered_mapIPdSt4pairIjjESt4hashIS0_ESt8equal_toIS0_ESaIS1_IKS0_S2_EEE4findERS7_.exit29.thread58, label %.lr.ph.i.i.i.i25, !llvm.loop !11

.lr.ph.i.i.i.i25:                                 ; preds = %77, %84
  %.018.i.i.i.i23 = phi %"struct.std::__detail::_Hash_node"* [ %88, %84 ], [ %79, %77 ]
  %86 = getelementptr inbounds %"struct.std::__detail::_Hash_node", %"struct.std::__detail::_Hash_node"* %.018.i.i.i.i23, i64 0, i32 0, i32 0
  %87 = load %"struct.std::__detail::_Hash_node_base"*, %"struct.std::__detail::_Hash_node_base"** %86, align 8
  %.not16.i.i.i.i24 = icmp eq %"struct.std::__detail::_Hash_node_base"* %87, null
  %88 = bitcast %"struct.std::__detail::_Hash_node_base"* %87 to %"struct.std::__detail::_Hash_node"*
  br i1 %.not16.i.i.i.i24, label %_ZNSt13unordered_mapIPdSt4pairIjjESt4hashIS0_ESt8equal_toIS0_ESaIS1_IKS0_S2_EEE4findERS7_.exit29.thread, label %89

89:                                               ; preds = %.lr.ph.i.i.i.i25
  %90 = getelementptr inbounds %"struct.std::__detail::_Hash_node_base", %"struct.std::__detail::_Hash_node_base"* %87, i64 1
  %91 = bitcast %"struct.std::__detail::_Hash_node_base"* %90 to double**
  %92 = load double*, double** %91, align 8
  %93 = ptrtoint double* %92 to i64
  %94 = urem i64 %93, %72
  %.not17.i.i.i.i26 = icmp eq i64 %94, %73
  br i1 %.not17.i.i.i.i26, label %84, label %_ZNSt13unordered_mapIPdSt4pairIjjESt4hashIS0_ESt8equal_toIS0_ESaIS1_IKS0_S2_EEE4findERS7_.exit29.thread, !llvm.loop !11

_ZNSt13unordered_mapIPdSt4pairIjjESt4hashIS0_ESt8equal_toIS0_ESaIS1_IKS0_S2_EEE4findERS7_.exit29.thread58: ; preds = %84
  br i1 %83, label %_ZNSt13unordered_mapIPdSt4pairIjjESt4hashIS0_ESt8equal_toIS0_ESaIS1_IKS0_S2_EEEixERS7_.exit, label %.lr.ph.i.i.i.i33

95:                                               ; preds = %100
  %96 = icmp eq double* %57, %103
  br i1 %96, label %_ZNSt13unordered_mapIPdSt4pairIjjESt4hashIS0_ESt8equal_toIS0_ESaIS1_IKS0_S2_EEEixERS7_.exit.loopexit, label %.lr.ph.i.i.i.i33, !llvm.loop !11

.lr.ph.i.i.i.i33:                                 ; preds = %_ZNSt13unordered_mapIPdSt4pairIjjESt4hashIS0_ESt8equal_toIS0_ESaIS1_IKS0_S2_EEE4findERS7_.exit29.thread58, %95
  %.018.i.i.i.i31 = phi %"struct.std::__detail::_Hash_node"* [ %99, %95 ], [ %79, %_ZNSt13unordered_mapIPdSt4pairIjjESt4hashIS0_ESt8equal_toIS0_ESaIS1_IKS0_S2_EEE4findERS7_.exit29.thread58 ]
  %97 = getelementptr inbounds %"struct.std::__detail::_Hash_node", %"struct.std::__detail::_Hash_node"* %.018.i.i.i.i31, i64 0, i32 0, i32 0
  %98 = load %"struct.std::__detail::_Hash_node_base"*, %"struct.std::__detail::_Hash_node_base"** %97, align 8
  %.not16.i.i.i.i32 = icmp eq %"struct.std::__detail::_Hash_node_base"* %98, null
  %99 = bitcast %"struct.std::__detail::_Hash_node_base"* %98 to %"struct.std::__detail::_Hash_node"*
  br i1 %.not16.i.i.i.i32, label %.loopexit.i.i, label %100

100:                                              ; preds = %.lr.ph.i.i.i.i33
  %101 = getelementptr inbounds %"struct.std::__detail::_Hash_node_base", %"struct.std::__detail::_Hash_node_base"* %98, i64 1
  %102 = bitcast %"struct.std::__detail::_Hash_node_base"* %101 to double**
  %103 = load double*, double** %102, align 8
  %104 = ptrtoint double* %103 to i64
  %105 = urem i64 %104, %72
  %.not17.i.i.i.i34 = icmp eq i64 %105, %73
  br i1 %.not17.i.i.i.i34, label %95, label %.loopexit.i.i, !llvm.loop !11

.loopexit.i.i:                                    ; preds = %100, %.lr.ph.i.i.i.i33
  %106 = call noalias nonnull i8* @_Znwm(i64 24) #24
  %107 = bitcast i8* %106 to %"struct.std::__detail::_Hash_node_base"**
  store %"struct.std::__detail::_Hash_node_base"* null, %"struct.std::__detail::_Hash_node_base"** %107, align 8
  %108 = getelementptr inbounds i8, i8* %106, i64 8
  %109 = bitcast i8* %108 to double**
  store double* %57, double** %109, align 8
  %110 = getelementptr inbounds i8, i8* %106, i64 16
  %111 = bitcast i8* %110 to i32*
  store i32 0, i32* %111, align 8
  %112 = getelementptr inbounds i8, i8* %106, i64 20
  %113 = bitcast i8* %112 to i32*
  store i32 0, i32* %113, align 4
  %114 = bitcast i8* %106 to %"struct.std::__detail::_Hash_node"*
  %115 = invoke %"struct.std::__detail::_Hash_node"* @_ZNSt10_HashtableIPdSt4pairIKS0_S1_IjjEESaIS4_ENSt8__detail10_Select1stESt8equal_toIS0_ESt4hashIS0_ENS6_18_Mod_range_hashingENS6_20_Default_ranged_hashENS6_20_Prime_rehash_policyENS6_17_Hashtable_traitsILb0ELb0ELb1EEEE21_M_insert_unique_nodeEmmPNS6_10_Hash_nodeIS4_Lb0EEEm(%"class.std::_Hashtable.85"* nonnull align 8 dereferenceable(56) getelementptr inbounds (%"class.std::unordered_map.84", %"class.std::unordered_map.84"* @ptrToEPMidx, i64 0, i32 0), i64 %73, i64 %71, %"struct.std::__detail::_Hash_node"* nonnull %114, i64 1)
          to label %_ZNSt13unordered_mapIPdSt4pairIjjESt4hashIS0_ESt8equal_toIS0_ESaIS1_IKS0_S2_EEEixERS7_.exit unwind label %_ZNSt10_HashtableIPdSt4pairIKS0_S1_IjjEESaIS4_ENSt8__detail10_Select1stESt8equal_toIS0_ESt4hashIS0_ENS6_18_Mod_range_hashingENS6_20_Default_ranged_hashENS6_20_Prime_rehash_policyENS6_17_Hashtable_traitsILb0ELb0ELb1EEEE12_Scoped_nodeD2Ev.exit20.i.i

common.resume:                                    ; preds = %_ZNSt10_HashtableIPdSt4pairIKS0_S1_IjjEESaIS4_ENSt8__detail10_Select1stESt8equal_toIS0_ESt4hashIS0_ENS6_18_Mod_range_hashingENS6_20_Default_ranged_hashENS6_20_Prime_rehash_policyENS6_17_Hashtable_traitsILb0ELb0ELb1EEEE12_Scoped_nodeD2Ev.exit20.i.i41, %_ZNSt10_HashtableIPdSt4pairIKS0_S1_IjjEESaIS4_ENSt8__detail10_Select1stESt8equal_toIS0_ESt4hashIS0_ENS6_18_Mod_range_hashingENS6_20_Default_ranged_hashENS6_20_Prime_rehash_policyENS6_17_Hashtable_traitsILb0ELb0ELb1EEEE12_Scoped_nodeD2Ev.exit20.i.i
  %.sink = phi i8* [ %162, %_ZNSt10_HashtableIPdSt4pairIKS0_S1_IjjEESaIS4_ENSt8__detail10_Select1stESt8equal_toIS0_ESt4hashIS0_ENS6_18_Mod_range_hashingENS6_20_Default_ranged_hashENS6_20_Prime_rehash_policyENS6_17_Hashtable_traitsILb0ELb0ELb1EEEE12_Scoped_nodeD2Ev.exit20.i.i41 ], [ %106, %_ZNSt10_HashtableIPdSt4pairIKS0_S1_IjjEESaIS4_ENSt8__detail10_Select1stESt8equal_toIS0_ESt4hashIS0_ENS6_18_Mod_range_hashingENS6_20_Default_ranged_hashENS6_20_Prime_rehash_policyENS6_17_Hashtable_traitsILb0ELb0ELb1EEEE12_Scoped_nodeD2Ev.exit20.i.i ]
  %common.resume.op = phi { i8*, i32 } [ %172, %_ZNSt10_HashtableIPdSt4pairIKS0_S1_IjjEESaIS4_ENSt8__detail10_Select1stESt8equal_toIS0_ESt4hashIS0_ENS6_18_Mod_range_hashingENS6_20_Default_ranged_hashENS6_20_Prime_rehash_policyENS6_17_Hashtable_traitsILb0ELb0ELb1EEEE12_Scoped_nodeD2Ev.exit20.i.i41 ], [ %116, %_ZNSt10_HashtableIPdSt4pairIKS0_S1_IjjEESaIS4_ENSt8__detail10_Select1stESt8equal_toIS0_ESt4hashIS0_ENS6_18_Mod_range_hashingENS6_20_Default_ranged_hashENS6_20_Prime_rehash_policyENS6_17_Hashtable_traitsILb0ELb0ELb1EEEE12_Scoped_nodeD2Ev.exit20.i.i ]
  call void @_ZdlPv(i8* nonnull %.sink) #23
  resume { i8*, i32 } %common.resume.op

_ZNSt10_HashtableIPdSt4pairIKS0_S1_IjjEESaIS4_ENSt8__detail10_Select1stESt8equal_toIS0_ESt4hashIS0_ENS6_18_Mod_range_hashingENS6_20_Default_ranged_hashENS6_20_Prime_rehash_policyENS6_17_Hashtable_traitsILb0ELb0ELb1EEEE12_Scoped_nodeD2Ev.exit20.i.i: ; preds = %.loopexit.i.i
  %116 = landingpad { i8*, i32 }
          cleanup
  br label %common.resume

_ZNSt13unordered_mapIPdSt4pairIjjESt4hashIS0_ESt8equal_toIS0_ESaIS1_IKS0_S2_EEEixERS7_.exit.loopexit: ; preds = %95
  %117 = bitcast %"struct.std::__detail::_Hash_node_base"* %98 to %"struct.std::__detail::_Hash_node"*
  br label %_ZNSt13unordered_mapIPdSt4pairIjjESt4hashIS0_ESt8equal_toIS0_ESaIS1_IKS0_S2_EEEixERS7_.exit

_ZNSt13unordered_mapIPdSt4pairIjjESt4hashIS0_ESt8equal_toIS0_ESaIS1_IKS0_S2_EEEixERS7_.exit: ; preds = %_ZNSt13unordered_mapIPdSt4pairIjjESt4hashIS0_ESt8equal_toIS0_ESaIS1_IKS0_S2_EEEixERS7_.exit.loopexit, %77, %_ZNSt13unordered_mapIPdSt4pairIjjESt4hashIS0_ESt8equal_toIS0_ESaIS1_IKS0_S2_EEE4findERS7_.exit29.thread58, %.loopexit.i.i
  %.0.i.pn.i.i = phi %"struct.std::__detail::_Hash_node"* [ %79, %_ZNSt13unordered_mapIPdSt4pairIjjESt4hashIS0_ESt8equal_toIS0_ESaIS1_IKS0_S2_EEE4findERS7_.exit29.thread58 ], [ %115, %.loopexit.i.i ], [ %79, %77 ], [ %117, %_ZNSt13unordered_mapIPdSt4pairIjjESt4hashIS0_ESt8equal_toIS0_ESaIS1_IKS0_S2_EEEixERS7_.exit.loopexit ]
  %.0.i.i = getelementptr inbounds %"struct.std::__detail::_Hash_node", %"struct.std::__detail::_Hash_node"* %.0.i.pn.i.i, i64 0, i32 1, i32 0, i32 0, i32 0, i32 0, i64 8
  %118 = bitcast i8* %.0.i.i to i32*
  %119 = load i32, i32* @col_size, align 4
  %.not72 = icmp eq i32 %119, 0
  br i1 %.not72, label %_ZNSt13unordered_mapIPdSt4pairIjjESt4hashIS0_ESt8equal_toIS0_ESaIS1_IKS0_S2_EEE4findERS7_.exit29.thread, label %.lr.ph

.lr.ph:                                           ; preds = %_ZNSt13unordered_mapIPdSt4pairIjjESt4hashIS0_ESt8equal_toIS0_ESaIS1_IKS0_S2_EEEixERS7_.exit, %.lr.ph
  %indvars.iv = phi i64 [ %indvars.iv.next, %.lr.ph ], [ 0, %_ZNSt13unordered_mapIPdSt4pairIjjESt4hashIS0_ESt8equal_toIS0_ESaIS1_IKS0_S2_EEEixERS7_.exit ]
  %120 = load i32, i32* %118, align 4
  %121 = zext i32 %120 to i64
  %122 = load %"class.std::vector"*, %"class.std::vector"** getelementptr inbounds (%"class.std::vector.59", %"class.std::vector.59"* @EPM, i64 0, i32 0, i32 0, i32 0, i32 0), align 8
  %123 = getelementptr inbounds %"class.std::vector", %"class.std::vector"* %122, i64 %121, i32 0, i32 0, i32 0, i32 0
  %124 = load double*, double** %123, align 8
  %125 = getelementptr inbounds double, double* %124, i64 %indvars.iv
  %126 = load double, double* %125, align 8
  %127 = fmul double %70, %126
  %128 = load double*, double** getelementptr inbounds (%"class.std::vector", %"class.std::vector"* @new_row, i64 0, i32 0, i32 0, i32 0, i32 0), align 16
  %129 = getelementptr inbounds double, double* %128, i64 %indvars.iv
  %130 = load double, double* %129, align 8
  %131 = fadd double %127, %130
  store double %131, double* %129, align 8
  %indvars.iv.next = add nuw nsw i64 %indvars.iv, 1
  %132 = load i32, i32* @col_size, align 4
  %133 = zext i32 %132 to i64
  %134 = icmp ult i64 %indvars.iv.next, %133
  br i1 %134, label %.lr.ph, label %_ZNSt13unordered_mapIPdSt4pairIjjESt4hashIS0_ESt8equal_toIS0_ESaIS1_IKS0_S2_EEE4findERS7_.exit29.thread, !llvm.loop !12

_ZNSt13unordered_mapIPdSt4pairIjjESt4hashIS0_ESt8equal_toIS0_ESaIS1_IKS0_S2_EEE4findERS7_.exit29.thread: ; preds = %89, %.lr.ph.i.i.i.i25, %.lr.ph, %_ZNSt13unordered_mapIPdSt4pairIjjESt4hashIS0_ESt8equal_toIS0_ESaIS1_IKS0_S2_EEEixERS7_.exit, %68
  %135 = add nuw nsw i32 %.068, 2
  %136 = icmp ult i32 %135, %3
  br i1 %136, label %.lr.ph69, label %._crit_edge, !llvm.loop !13

._crit_edge:                                      ; preds = %_ZNSt13unordered_mapIPdSt4pairIjjESt4hashIS0_ESt8equal_toIS0_ESaIS1_IKS0_S2_EEE4findERS7_.exit29.thread, %_ZSt4fillIN9__gnu_cxx17__normal_iteratorIPdSt6vectorIdSaIdEEEEiEvT_S7_RKT0_.exit
  br i1 %.not, label %208, label %137

137:                                              ; preds = %._crit_edge
  %138 = ptrtoint double* %0 to i64
  %139 = load i64, i64* getelementptr inbounds (%"class.std::unordered_map.84", %"class.std::unordered_map.84"* @ptrToEPMidx, i64 0, i32 0, i32 1), align 8
  %140 = urem i64 %138, %139
  %141 = load %"struct.std::__detail::_Hash_node_base"**, %"struct.std::__detail::_Hash_node_base"*** getelementptr inbounds (%"class.std::unordered_map.84", %"class.std::unordered_map.84"* @ptrToEPMidx, i64 0, i32 0, i32 0), align 8
  %142 = getelementptr inbounds %"struct.std::__detail::_Hash_node_base"*, %"struct.std::__detail::_Hash_node_base"** %141, i64 %140
  %143 = load %"struct.std::__detail::_Hash_node_base"*, %"struct.std::__detail::_Hash_node_base"** %142, align 8
  %.not.i.i.i.i35 = icmp eq %"struct.std::__detail::_Hash_node_base"* %143, null
  br i1 %.not.i.i.i.i35, label %.loopexit.i.i40, label %144

144:                                              ; preds = %137
  %145 = bitcast %"struct.std::__detail::_Hash_node_base"* %143 to %"struct.std::__detail::_Hash_node"**
  %146 = load %"struct.std::__detail::_Hash_node"*, %"struct.std::__detail::_Hash_node"** %145, align 8
  %147 = getelementptr inbounds %"struct.std::__detail::_Hash_node", %"struct.std::__detail::_Hash_node"* %146, i64 0, i32 1, i32 0, i32 0, i32 0, i32 0, i64 0
  %148 = bitcast i8* %147 to double**
  %149 = load double*, double** %148, align 8
  %150 = icmp eq double* %149, %0
  br i1 %150, label %_ZNSt13unordered_mapIPdSt4pairIjjESt4hashIS0_ESt8equal_toIS0_ESaIS1_IKS0_S2_EEEixERS7_.exit45, label %.lr.ph.i.i.i.i38

151:                                              ; preds = %156
  %152 = icmp eq double* %159, %0
  br i1 %152, label %_ZNSt13unordered_mapIPdSt4pairIjjESt4hashIS0_ESt8equal_toIS0_ESaIS1_IKS0_S2_EEEixERS7_.exit45.loopexit, label %.lr.ph.i.i.i.i38, !llvm.loop !11

.lr.ph.i.i.i.i38:                                 ; preds = %144, %151
  %.018.i.i.i.i36 = phi %"struct.std::__detail::_Hash_node"* [ %155, %151 ], [ %146, %144 ]
  %153 = getelementptr inbounds %"struct.std::__detail::_Hash_node", %"struct.std::__detail::_Hash_node"* %.018.i.i.i.i36, i64 0, i32 0, i32 0
  %154 = load %"struct.std::__detail::_Hash_node_base"*, %"struct.std::__detail::_Hash_node_base"** %153, align 8
  %.not16.i.i.i.i37 = icmp eq %"struct.std::__detail::_Hash_node_base"* %154, null
  %155 = bitcast %"struct.std::__detail::_Hash_node_base"* %154 to %"struct.std::__detail::_Hash_node"*
  br i1 %.not16.i.i.i.i37, label %.loopexit.i.i40, label %156

156:                                              ; preds = %.lr.ph.i.i.i.i38
  %157 = getelementptr inbounds %"struct.std::__detail::_Hash_node_base", %"struct.std::__detail::_Hash_node_base"* %154, i64 1
  %158 = bitcast %"struct.std::__detail::_Hash_node_base"* %157 to double**
  %159 = load double*, double** %158, align 8
  %160 = ptrtoint double* %159 to i64
  %161 = urem i64 %160, %139
  %.not17.i.i.i.i39 = icmp eq i64 %161, %140
  br i1 %.not17.i.i.i.i39, label %151, label %.loopexit.i.i40, !llvm.loop !11

.loopexit.i.i40:                                  ; preds = %156, %.lr.ph.i.i.i.i38, %137
  %162 = call noalias nonnull i8* @_Znwm(i64 24) #24
  %163 = bitcast i8* %162 to %"struct.std::__detail::_Hash_node_base"**
  store %"struct.std::__detail::_Hash_node_base"* null, %"struct.std::__detail::_Hash_node_base"** %163, align 8
  %164 = getelementptr inbounds i8, i8* %162, i64 8
  %165 = bitcast i8* %164 to double**
  store double* %0, double** %165, align 8
  %166 = getelementptr inbounds i8, i8* %162, i64 16
  %167 = bitcast i8* %166 to i32*
  store i32 0, i32* %167, align 8
  %168 = getelementptr inbounds i8, i8* %162, i64 20
  %169 = bitcast i8* %168 to i32*
  store i32 0, i32* %169, align 4
  %170 = bitcast i8* %162 to %"struct.std::__detail::_Hash_node"*
  %171 = invoke %"struct.std::__detail::_Hash_node"* @_ZNSt10_HashtableIPdSt4pairIKS0_S1_IjjEESaIS4_ENSt8__detail10_Select1stESt8equal_toIS0_ESt4hashIS0_ENS6_18_Mod_range_hashingENS6_20_Default_ranged_hashENS6_20_Prime_rehash_policyENS6_17_Hashtable_traitsILb0ELb0ELb1EEEE21_M_insert_unique_nodeEmmPNS6_10_Hash_nodeIS4_Lb0EEEm(%"class.std::_Hashtable.85"* nonnull align 8 dereferenceable(56) getelementptr inbounds (%"class.std::unordered_map.84", %"class.std::unordered_map.84"* @ptrToEPMidx, i64 0, i32 0), i64 %140, i64 %138, %"struct.std::__detail::_Hash_node"* nonnull %170, i64 1)
          to label %_ZNSt13unordered_mapIPdSt4pairIjjESt4hashIS0_ESt8equal_toIS0_ESaIS1_IKS0_S2_EEEixERS7_.exit45 unwind label %_ZNSt10_HashtableIPdSt4pairIKS0_S1_IjjEESaIS4_ENSt8__detail10_Select1stESt8equal_toIS0_ESt4hashIS0_ENS6_18_Mod_range_hashingENS6_20_Default_ranged_hashENS6_20_Prime_rehash_policyENS6_17_Hashtable_traitsILb0ELb0ELb1EEEE12_Scoped_nodeD2Ev.exit20.i.i41

_ZNSt10_HashtableIPdSt4pairIKS0_S1_IjjEESaIS4_ENSt8__detail10_Select1stESt8equal_toIS0_ESt4hashIS0_ENS6_18_Mod_range_hashingENS6_20_Default_ranged_hashENS6_20_Prime_rehash_policyENS6_17_Hashtable_traitsILb0ELb0ELb1EEEE12_Scoped_nodeD2Ev.exit20.i.i41: ; preds = %.loopexit.i.i40
  %172 = landingpad { i8*, i32 }
          cleanup
  br label %common.resume

_ZNSt13unordered_mapIPdSt4pairIjjESt4hashIS0_ESt8equal_toIS0_ESaIS1_IKS0_S2_EEEixERS7_.exit45.loopexit: ; preds = %151
  %173 = bitcast %"struct.std::__detail::_Hash_node_base"* %154 to %"struct.std::__detail::_Hash_node"*
  br label %_ZNSt13unordered_mapIPdSt4pairIjjESt4hashIS0_ESt8equal_toIS0_ESaIS1_IKS0_S2_EEEixERS7_.exit45

_ZNSt13unordered_mapIPdSt4pairIjjESt4hashIS0_ESt8equal_toIS0_ESaIS1_IKS0_S2_EEEixERS7_.exit45: ; preds = %_ZNSt13unordered_mapIPdSt4pairIjjESt4hashIS0_ESt8equal_toIS0_ESaIS1_IKS0_S2_EEEixERS7_.exit45.loopexit, %144, %.loopexit.i.i40
  %.0.i.pn.i.i43 = phi %"struct.std::__detail::_Hash_node"* [ %146, %144 ], [ %171, %.loopexit.i.i40 ], [ %173, %_ZNSt13unordered_mapIPdSt4pairIjjESt4hashIS0_ESt8equal_toIS0_ESaIS1_IKS0_S2_EEEixERS7_.exit45.loopexit ]
  %.0.i.i44 = getelementptr inbounds %"struct.std::__detail::_Hash_node", %"struct.std::__detail::_Hash_node"* %.0.i.pn.i.i43, i64 0, i32 1, i32 0, i32 0, i32 0, i32 0, i64 8
  %174 = bitcast i8* %.0.i.i44 to i32*
  %175 = load i32, i32* %174, align 4
  %176 = zext i32 %175 to i64
  %177 = load %"class.std::vector"*, %"class.std::vector"** getelementptr inbounds (%"class.std::vector.59", %"class.std::vector.59"* @EPM, i64 0, i32 0, i32 0, i32 0, i32 0), align 8
  %178 = getelementptr inbounds %"class.std::vector", %"class.std::vector"* %177, i64 %176, i32 0, i32 0, i32 0, i32 0
  %179 = getelementptr inbounds %"class.std::vector", %"class.std::vector"* %177, i64 %176, i32 0, i32 0, i32 0, i32 1
  %180 = bitcast double** %178 to <2 x double*>*
  %181 = load <2 x double*>, <2 x double*>* %180, align 8
  %182 = getelementptr inbounds %"class.std::vector", %"class.std::vector"* %177, i64 %176, i32 0, i32 0, i32 0, i32 2
  %183 = load double*, double** %182, align 8
  %184 = load double*, double** getelementptr inbounds (%"class.std::vector", %"class.std::vector"* @new_row, i64 0, i32 0, i32 0, i32 0, i32 0), align 16
  store double* %184, double** %178, align 8
  %185 = load double*, double** getelementptr inbounds (%"class.std::vector", %"class.std::vector"* @new_row, i64 0, i32 0, i32 0, i32 0, i32 1), align 8
  store double* %185, double** %179, align 8
  %186 = load double*, double** getelementptr inbounds (%"class.std::vector", %"class.std::vector"* @new_row, i64 0, i32 0, i32 0, i32 0, i32 2), align 16
  store double* %186, double** %182, align 8
  store <2 x double*> %181, <2 x double*>* bitcast (%"class.std::vector"* @new_row to <2 x double*>*), align 16
  store double* %183, double** getelementptr inbounds (%"class.std::vector", %"class.std::vector"* @new_row, i64 0, i32 0, i32 0, i32 0, i32 2), align 16
  %187 = fpext float %2 to double
  %188 = fsub double %1, %187
  %189 = load i32, i32* %174, align 4
  %190 = zext i32 %189 to i64
  %191 = load %"class.std::vector"*, %"class.std::vector"** getelementptr inbounds (%"class.std::vector.59", %"class.std::vector.59"* @EPM, i64 0, i32 0, i32 0, i32 0, i32 0), align 8
  %192 = getelementptr inbounds %"struct.std::__detail::_Hash_node", %"struct.std::__detail::_Hash_node"* %.0.i.pn.i.i43, i64 0, i32 1, i32 0, i32 0, i32 0, i32 0, i64 12
  %193 = bitcast i8* %192 to i32*
  %194 = load i32, i32* %193, align 4
  %195 = zext i32 %194 to i64
  %196 = getelementptr inbounds %"class.std::vector", %"class.std::vector"* %191, i64 %190, i32 0, i32 0, i32 0, i32 0
  %197 = load double*, double** %196, align 8
  %198 = getelementptr inbounds double, double* %197, i64 %195
  %199 = load double, double* %198, align 8
  %200 = fadd double %188, %199
  store double %200, double* %198, align 8
  %201 = load i32, i32* %174, align 4
  %202 = load i64*, i64** getelementptr inbounds (%"class.std::vector.0", %"class.std::vector.0"* @updated_rows, i64 0, i32 0, i32 0, i32 0, i32 0, i32 0, i32 0), align 8
  %203 = lshr i32 %201, 6
  %.zext = zext i32 %203 to i64
  %204 = and i32 %201, 63
  %.zext61 = zext i32 %204 to i64
  %storemerge.i.i.i.i.i = getelementptr i64, i64* %202, i64 %.zext
  %205 = shl nuw i64 1, %.zext61
  %206 = load i64, i64* %storemerge.i.i.i.i.i, align 8
  %207 = or i64 %205, %206
  store i64 %207, i64* %storemerge.i.i.i.i.i, align 8
  br label %213

208:                                              ; preds = %._crit_edge
  %209 = call nonnull align 8 dereferenceable(24) %"class.std::vector"* @_ZNSt13unordered_mapIjSt6vectorIdSaIdEESt4hashIjESt8equal_toIjESaISt4pairIKjS2_EEEixERS8_(%"class.std::unordered_map.98"* nonnull align 8 dereferenceable(56) @rowPassMap, i32* nonnull align 4 dereferenceable(4) @arg_id)
  %210 = call nonnull align 8 dereferenceable(24) %"class.std::vector"* @_ZNSt6vectorIdSaIdEEaSERKS1_(%"class.std::vector"* nonnull align 8 dereferenceable(24) %209, %"class.std::vector"* nonnull align 8 dereferenceable(24) @new_row)
  %211 = load i32, i32* @arg_id, align 4
  %212 = add i32 %211, 1
  store i32 %212, i32* @arg_id, align 4
  br label %213

213:                                              ; preds = %208, %_ZNSt13unordered_mapIPdSt4pairIjjESt4hashIS0_ESt8equal_toIS0_ESaIS1_IKS0_S2_EEEixERS7_.exit45
  call void @llvm.va_end(i8* nonnull %31)
  br label %_ZNSt13unordered_mapIPdSt4pairIjjESt4hashIS0_ESt8equal_toIS0_ESaIS1_IKS0_S2_EEE4findERS7_.exit.thread

_ZNSt13unordered_mapIPdSt4pairIjjESt4hashIS0_ESt8equal_toIS0_ESaIS1_IKS0_S2_EEE4findERS7_.exit.thread: ; preds = %25, %.lr.ph.i.i.i.i, %6, %213
  ret void
}

; Function Attrs: mustprogress nofree nosync nounwind willreturn
declare void @llvm.va_start(i8*) #8

; Function Attrs: uwtable
define linkonce_odr dso_local nonnull align 8 dereferenceable(24) %"class.std::vector"* @_ZNSt13unordered_mapIjSt6vectorIdSaIdEESt4hashIjESt8equal_toIjESaISt4pairIKjS2_EEEixERS8_(%"class.std::unordered_map.98"* nonnull align 8 dereferenceable(56) %0, i32* nonnull align 4 dereferenceable(4) %1) local_unnamed_addr #7 comdat align 2 personality i32 (...)* @__gxx_personality_v0 {
  %3 = getelementptr inbounds %"class.std::unordered_map.98", %"class.std::unordered_map.98"* %0, i64 0, i32 0
  %4 = load i32, i32* %1, align 4
  %5 = zext i32 %4 to i64
  %6 = getelementptr inbounds %"class.std::unordered_map.98", %"class.std::unordered_map.98"* %0, i64 0, i32 0, i32 1
  %7 = load i64, i64* %6, align 8
  %8 = urem i64 %5, %7
  %9 = getelementptr inbounds %"class.std::unordered_map.98", %"class.std::unordered_map.98"* %0, i64 0, i32 0, i32 0
  %10 = load %"struct.std::__detail::_Hash_node_base"**, %"struct.std::__detail::_Hash_node_base"*** %9, align 8
  %11 = getelementptr inbounds %"struct.std::__detail::_Hash_node_base"*, %"struct.std::__detail::_Hash_node_base"** %10, i64 %8
  %12 = load %"struct.std::__detail::_Hash_node_base"*, %"struct.std::__detail::_Hash_node_base"** %11, align 8
  %.not.i.i.i = icmp eq %"struct.std::__detail::_Hash_node_base"* %12, null
  br i1 %.not.i.i.i, label %.loopexit.i, label %13

13:                                               ; preds = %2
  %14 = bitcast %"struct.std::__detail::_Hash_node_base"* %12 to %"struct.std::__detail::_Hash_node.115"**
  %15 = load %"struct.std::__detail::_Hash_node.115"*, %"struct.std::__detail::_Hash_node.115"** %14, align 8
  %16 = getelementptr inbounds %"struct.std::__detail::_Hash_node.115", %"struct.std::__detail::_Hash_node.115"* %15, i64 0, i32 1, i32 0, i32 0, i32 0, i32 0, i64 0
  %17 = bitcast i8* %16 to i32*
  %18 = load i32, i32* %17, align 8
  %19 = icmp eq i32 %4, %18
  br i1 %19, label %_ZNSt8__detail9_Map_baseIjSt4pairIKjSt6vectorIdSaIdEEESaIS6_ENS_10_Select1stESt8equal_toIjESt4hashIjENS_18_Mod_range_hashingENS_20_Default_ranged_hashENS_20_Prime_rehash_policyENS_17_Hashtable_traitsILb0ELb0ELb1EEELb1EEixERS2_.exit, label %.lr.ph.i.i.i

20:                                               ; preds = %25
  %21 = icmp eq i32 %4, %28
  br i1 %21, label %_ZNSt8__detail9_Map_baseIjSt4pairIKjSt6vectorIdSaIdEEESaIS6_ENS_10_Select1stESt8equal_toIjESt4hashIjENS_18_Mod_range_hashingENS_20_Default_ranged_hashENS_20_Prime_rehash_policyENS_17_Hashtable_traitsILb0ELb0ELb1EEELb1EEixERS2_.exit.loopexit, label %.lr.ph.i.i.i, !llvm.loop !14

.lr.ph.i.i.i:                                     ; preds = %13, %20
  %.018.i.i.i = phi %"struct.std::__detail::_Hash_node.115"* [ %24, %20 ], [ %15, %13 ]
  %22 = getelementptr inbounds %"struct.std::__detail::_Hash_node.115", %"struct.std::__detail::_Hash_node.115"* %.018.i.i.i, i64 0, i32 0, i32 0
  %23 = load %"struct.std::__detail::_Hash_node_base"*, %"struct.std::__detail::_Hash_node_base"** %22, align 8
  %.not16.i.i.i = icmp eq %"struct.std::__detail::_Hash_node_base"* %23, null
  %24 = bitcast %"struct.std::__detail::_Hash_node_base"* %23 to %"struct.std::__detail::_Hash_node.115"*
  br i1 %.not16.i.i.i, label %.loopexit.i, label %25

25:                                               ; preds = %.lr.ph.i.i.i
  %26 = getelementptr inbounds %"struct.std::__detail::_Hash_node_base", %"struct.std::__detail::_Hash_node_base"* %23, i64 1
  %27 = bitcast %"struct.std::__detail::_Hash_node_base"* %26 to i32*
  %28 = load i32, i32* %27, align 8
  %29 = zext i32 %28 to i64
  %30 = urem i64 %29, %7
  %.not17.i.i.i = icmp eq i64 %30, %8
  br i1 %.not17.i.i.i, label %20, label %.loopexit.i, !llvm.loop !14

.loopexit.i:                                      ; preds = %25, %.lr.ph.i.i.i, %2
  %31 = tail call noalias nonnull i8* @_Znwm(i64 40) #24
  %32 = bitcast i8* %31 to %"struct.std::__detail::_Hash_node_base"**
  store %"struct.std::__detail::_Hash_node_base"* null, %"struct.std::__detail::_Hash_node_base"** %32, align 8
  %33 = getelementptr inbounds i8, i8* %31, i64 8
  %34 = bitcast i8* %33 to i32*
  %35 = load i32, i32* %1, align 4
  store i32 %35, i32* %34, align 8
  %36 = getelementptr inbounds i8, i8* %31, i64 16
  tail call void @llvm.memset.p0i8.i64(i8* noundef nonnull align 8 dereferenceable(24) %36, i8 0, i64 24, i1 false) #23
  %37 = bitcast i8* %31 to %"struct.std::__detail::_Hash_node.115"*
  %38 = invoke %"struct.std::__detail::_Hash_node.115"* @_ZNSt10_HashtableIjSt4pairIKjSt6vectorIdSaIdEEESaIS5_ENSt8__detail10_Select1stESt8equal_toIjESt4hashIjENS7_18_Mod_range_hashingENS7_20_Default_ranged_hashENS7_20_Prime_rehash_policyENS7_17_Hashtable_traitsILb0ELb0ELb1EEEE21_M_insert_unique_nodeEmmPNS7_10_Hash_nodeIS5_Lb0EEEm(%"class.std::_Hashtable.99"* nonnull align 8 dereferenceable(56) %3, i64 %8, i64 %5, %"struct.std::__detail::_Hash_node.115"* nonnull %37, i64 1)
          to label %_ZNSt8__detail9_Map_baseIjSt4pairIKjSt6vectorIdSaIdEEESaIS6_ENS_10_Select1stESt8equal_toIjESt4hashIjENS_18_Mod_range_hashingENS_20_Default_ranged_hashENS_20_Prime_rehash_policyENS_17_Hashtable_traitsILb0ELb0ELb1EEELb1EEixERS2_.exit unwind label %39

39:                                               ; preds = %.loopexit.i
  %40 = landingpad { i8*, i32 }
          cleanup
  %41 = bitcast i8* %36 to double**
  %42 = load double*, double** %41, align 8
  %.not.i.i.i.i.i.i.i.i = icmp eq double* %42, null
  br i1 %.not.i.i.i.i.i.i.i.i, label %_ZNSt10_HashtableIjSt4pairIKjSt6vectorIdSaIdEEESaIS5_ENSt8__detail10_Select1stESt8equal_toIjESt4hashIjENS7_18_Mod_range_hashingENS7_20_Default_ranged_hashENS7_20_Prime_rehash_policyENS7_17_Hashtable_traitsILb0ELb0ELb1EEEE12_Scoped_nodeD2Ev.exit, label %43

43:                                               ; preds = %39
  %44 = bitcast double* %42 to i8*
  tail call void @_ZdlPv(i8* nonnull %44) #23
  br label %_ZNSt10_HashtableIjSt4pairIKjSt6vectorIdSaIdEEESaIS5_ENSt8__detail10_Select1stESt8equal_toIjESt4hashIjENS7_18_Mod_range_hashingENS7_20_Default_ranged_hashENS7_20_Prime_rehash_policyENS7_17_Hashtable_traitsILb0ELb0ELb1EEEE12_Scoped_nodeD2Ev.exit

_ZNSt10_HashtableIjSt4pairIKjSt6vectorIdSaIdEEESaIS5_ENSt8__detail10_Select1stESt8equal_toIjESt4hashIjENS7_18_Mod_range_hashingENS7_20_Default_ranged_hashENS7_20_Prime_rehash_policyENS7_17_Hashtable_traitsILb0ELb0ELb1EEEE12_Scoped_nodeD2Ev.exit: ; preds = %39, %43
  tail call void @_ZdlPv(i8* nonnull %31) #23
  resume { i8*, i32 } %40

_ZNSt8__detail9_Map_baseIjSt4pairIKjSt6vectorIdSaIdEEESaIS6_ENS_10_Select1stESt8equal_toIjESt4hashIjENS_18_Mod_range_hashingENS_20_Default_ranged_hashENS_20_Prime_rehash_policyENS_17_Hashtable_traitsILb0ELb0ELb1EEELb1EEixERS2_.exit.loopexit: ; preds = %20
  %45 = bitcast %"struct.std::__detail::_Hash_node_base"* %23 to %"struct.std::__detail::_Hash_node.115"*
  br label %_ZNSt8__detail9_Map_baseIjSt4pairIKjSt6vectorIdSaIdEEESaIS6_ENS_10_Select1stESt8equal_toIjESt4hashIjENS_18_Mod_range_hashingENS_20_Default_ranged_hashENS_20_Prime_rehash_policyENS_17_Hashtable_traitsILb0ELb0ELb1EEELb1EEixERS2_.exit

_ZNSt8__detail9_Map_baseIjSt4pairIKjSt6vectorIdSaIdEEESaIS6_ENS_10_Select1stESt8equal_toIjESt4hashIjENS_18_Mod_range_hashingENS_20_Default_ranged_hashENS_20_Prime_rehash_policyENS_17_Hashtable_traitsILb0ELb0ELb1EEELb1EEixERS2_.exit: ; preds = %_ZNSt8__detail9_Map_baseIjSt4pairIKjSt6vectorIdSaIdEEESaIS6_ENS_10_Select1stESt8equal_toIjESt4hashIjENS_18_Mod_range_hashingENS_20_Default_ranged_hashENS_20_Prime_rehash_policyENS_17_Hashtable_traitsILb0ELb0ELb1EEELb1EEixERS2_.exit.loopexit, %.loopexit.i, %13
  %.0.i.pn.i = phi %"struct.std::__detail::_Hash_node.115"* [ %15, %13 ], [ %38, %.loopexit.i ], [ %45, %_ZNSt8__detail9_Map_baseIjSt4pairIKjSt6vectorIdSaIdEEESaIS6_ENS_10_Select1stESt8equal_toIjESt4hashIjENS_18_Mod_range_hashingENS_20_Default_ranged_hashENS_20_Prime_rehash_policyENS_17_Hashtable_traitsILb0ELb0ELb1EEELb1EEixERS2_.exit.loopexit ]
  %.0.i = getelementptr inbounds %"struct.std::__detail::_Hash_node.115", %"struct.std::__detail::_Hash_node.115"* %.0.i.pn.i, i64 0, i32 1, i32 0, i32 0, i32 0, i32 0, i64 8
  %46 = bitcast i8* %.0.i to %"class.std::vector"*
  ret %"class.std::vector"* %46
}

; Function Attrs: uwtable
define linkonce_odr dso_local nonnull align 8 dereferenceable(24) %"class.std::vector"* @_ZNSt6vectorIdSaIdEEaSERKS1_(%"class.std::vector"* nonnull align 8 dereferenceable(24) %0, %"class.std::vector"* nonnull align 8 dereferenceable(24) %1) local_unnamed_addr #7 comdat align 2 personality i32 (...)* @__gxx_personality_v0 {
  %.not = icmp eq %"class.std::vector"* %1, %0
  br i1 %.not, label %58, label %3

3:                                                ; preds = %2
  %4 = getelementptr inbounds %"class.std::vector", %"class.std::vector"* %1, i64 0, i32 0, i32 0, i32 0, i32 1
  %5 = load double*, double** %4, align 8
  %6 = getelementptr inbounds %"class.std::vector", %"class.std::vector"* %1, i64 0, i32 0, i32 0, i32 0, i32 0
  %7 = load double*, double** %6, align 8
  %8 = ptrtoint double* %5 to i64
  %9 = ptrtoint double* %7 to i64
  %10 = sub i64 %8, %9
  %11 = ashr exact i64 %10, 3
  %12 = getelementptr inbounds %"class.std::vector", %"class.std::vector"* %0, i64 0, i32 0, i32 0, i32 0, i32 2
  %13 = load double*, double** %12, align 8
  %14 = getelementptr inbounds %"class.std::vector", %"class.std::vector"* %0, i64 0, i32 0, i32 0, i32 0, i32 0
  %15 = load double*, double** %14, align 8
  %16 = ptrtoint double* %13 to i64
  %17 = ptrtoint double* %15 to i64
  %18 = sub i64 %16, %17
  %19 = ashr exact i64 %18, 3
  %20 = icmp ugt i64 %11, %19
  br i1 %20, label %21, label %33

21:                                               ; preds = %3
  %22 = icmp ugt i64 %11, 1152921504606846975
  br i1 %22, label %23, label %_ZNSt12_Vector_baseIdSaIdEE11_M_allocateEm.exit.i

23:                                               ; preds = %21
  tail call void @_ZSt28__throw_bad_array_new_lengthv() #25
  unreachable

_ZNSt12_Vector_baseIdSaIdEE11_M_allocateEm.exit.i: ; preds = %21
  %24 = tail call noalias nonnull i8* @_Znwm(i64 %10) #24
  %25 = bitcast i8* %24 to double*
  %.not.i.i.i.i.i.i.i.i.i = icmp eq i64 %10, 0
  br i1 %.not.i.i.i.i.i.i.i.i.i, label %_ZNSt6vectorIdSaIdEE20_M_allocate_and_copyIN9__gnu_cxx17__normal_iteratorIPKdS1_EEEEPdmT_S9_.exit, label %26

26:                                               ; preds = %_ZNSt12_Vector_baseIdSaIdEE11_M_allocateEm.exit.i
  %27 = bitcast double* %7 to i8*
  tail call void @llvm.memcpy.p0i8.p0i8.i64(i8* nonnull align 8 %24, i8* align 8 %27, i64 %10, i1 false) #23
  br label %_ZNSt6vectorIdSaIdEE20_M_allocate_and_copyIN9__gnu_cxx17__normal_iteratorIPKdS1_EEEEPdmT_S9_.exit

_ZNSt6vectorIdSaIdEE20_M_allocate_and_copyIN9__gnu_cxx17__normal_iteratorIPKdS1_EEEEPdmT_S9_.exit: ; preds = %_ZNSt12_Vector_baseIdSaIdEE11_M_allocateEm.exit.i, %26
  %28 = load double*, double** %14, align 8
  %.not.i = icmp eq double* %28, null
  br i1 %.not.i, label %_ZNSt12_Vector_baseIdSaIdEE13_M_deallocateEPdm.exit, label %29

29:                                               ; preds = %_ZNSt6vectorIdSaIdEE20_M_allocate_and_copyIN9__gnu_cxx17__normal_iteratorIPKdS1_EEEEPdmT_S9_.exit
  %30 = bitcast double* %28 to i8*
  tail call void @_ZdlPv(i8* nonnull %30) #23
  br label %_ZNSt12_Vector_baseIdSaIdEE13_M_deallocateEPdm.exit

_ZNSt12_Vector_baseIdSaIdEE13_M_deallocateEPdm.exit: ; preds = %_ZNSt6vectorIdSaIdEE20_M_allocate_and_copyIN9__gnu_cxx17__normal_iteratorIPKdS1_EEEEPdmT_S9_.exit, %29
  %31 = bitcast %"class.std::vector"* %0 to i8**
  store i8* %24, i8** %31, align 8
  %32 = getelementptr inbounds double, double* %25, i64 %11
  store double* %32, double** %12, align 8
  br label %_ZSt4copyIN9__gnu_cxx17__normal_iteratorIPKdSt6vectorIdSaIdEEEENS1_IPdS6_EEET0_T_SB_SA_.exit

33:                                               ; preds = %3
  %34 = getelementptr inbounds %"class.std::vector", %"class.std::vector"* %0, i64 0, i32 0, i32 0, i32 0, i32 1
  %35 = load double*, double** %34, align 8
  %36 = ptrtoint double* %35 to i64
  %37 = sub i64 %36, %17
  %38 = ashr exact i64 %37, 3
  %.not24 = icmp ult i64 %38, %11
  br i1 %.not24, label %43, label %39

39:                                               ; preds = %33
  %.not.i.i.i.i.i = icmp eq i64 %10, 0
  br i1 %.not.i.i.i.i.i, label %_ZSt4copyIN9__gnu_cxx17__normal_iteratorIPKdSt6vectorIdSaIdEEEENS1_IPdS6_EEET0_T_SB_SA_.exit, label %40

40:                                               ; preds = %39
  %41 = bitcast double* %15 to i8*
  %42 = bitcast double* %7 to i8*
  tail call void @llvm.memmove.p0i8.p0i8.i64(i8* align 8 %41, i8* align 8 %42, i64 %10, i1 false) #23
  br label %_ZSt4copyIN9__gnu_cxx17__normal_iteratorIPKdSt6vectorIdSaIdEEEENS1_IPdS6_EEET0_T_SB_SA_.exit

43:                                               ; preds = %33
  %.not.i.i.i.i.i25 = icmp eq i64 %37, 0
  br i1 %.not.i.i.i.i.i25, label %_ZSt4copyIPdS0_ET0_T_S2_S1_.exit, label %44

44:                                               ; preds = %43
  %45 = bitcast double* %15 to i8*
  %46 = bitcast double* %7 to i8*
  tail call void @llvm.memmove.p0i8.p0i8.i64(i8* align 8 %45, i8* align 8 %46, i64 %37, i1 false) #23
  %.pre = load double*, double** %6, align 8
  %.pre26 = load double*, double** %34, align 8
  %.pre27 = load double*, double** %14, align 8
  %.pre28 = load double*, double** %4, align 8
  %.pre29 = ptrtoint double* %.pre26 to i64
  %.pre30 = ptrtoint double* %.pre27 to i64
  %.pre32 = sub i64 %.pre29, %.pre30
  %.pre34 = ashr exact i64 %.pre32, 3
  %.pre36 = ptrtoint double* %.pre28 to i64
  br label %_ZSt4copyIPdS0_ET0_T_S2_S1_.exit

_ZSt4copyIPdS0_ET0_T_S2_S1_.exit:                 ; preds = %43, %44
  %.pre-phi37 = phi i64 [ %8, %43 ], [ %.pre36, %44 ]
  %.pre-phi35 = phi i64 [ 0, %43 ], [ %.pre34, %44 ]
  %47 = phi double* [ %35, %43 ], [ %.pre26, %44 ]
  %48 = phi double* [ %7, %43 ], [ %.pre, %44 ]
  %49 = getelementptr inbounds double, double* %48, i64 %.pre-phi35
  %50 = ptrtoint double* %49 to i64
  %51 = sub i64 %.pre-phi37, %50
  %.not.i.i.i.i.i.i.i.i = icmp eq i64 %51, 0
  br i1 %.not.i.i.i.i.i.i.i.i, label %_ZSt4copyIN9__gnu_cxx17__normal_iteratorIPKdSt6vectorIdSaIdEEEENS1_IPdS6_EEET0_T_SB_SA_.exit, label %52

52:                                               ; preds = %_ZSt4copyIPdS0_ET0_T_S2_S1_.exit
  %53 = bitcast double* %47 to i8*
  %54 = bitcast double* %49 to i8*
  tail call void @llvm.memmove.p0i8.p0i8.i64(i8* align 8 %53, i8* align 8 %54, i64 %51, i1 false) #23
  br label %_ZSt4copyIN9__gnu_cxx17__normal_iteratorIPKdSt6vectorIdSaIdEEEENS1_IPdS6_EEET0_T_SB_SA_.exit

_ZSt4copyIN9__gnu_cxx17__normal_iteratorIPKdSt6vectorIdSaIdEEEENS1_IPdS6_EEET0_T_SB_SA_.exit: ; preds = %52, %_ZSt4copyIPdS0_ET0_T_S2_S1_.exit, %40, %39, %_ZNSt12_Vector_baseIdSaIdEE13_M_deallocateEPdm.exit
  %55 = load double*, double** %14, align 8
  %56 = getelementptr inbounds double, double* %55, i64 %11
  %57 = getelementptr inbounds %"class.std::vector", %"class.std::vector"* %0, i64 0, i32 0, i32 0, i32 0, i32 1
  store double* %56, double** %57, align 8
  br label %58

58:                                               ; preds = %_ZSt4copyIN9__gnu_cxx17__normal_iteratorIPKdSt6vectorIdSaIdEEEENS1_IPdS6_EEET0_T_SB_SA_.exit, %2
  ret %"class.std::vector"* %0
}

; Function Attrs: mustprogress nofree nosync nounwind willreturn
declare void @llvm.va_end(i8*) #8

; Function Attrs: uwtable
define dso_local void @saesp_analysis_opt_entry(double* %0, double %1, float %2, i32 %3, ...) local_unnamed_addr #7 personality i32 (...)* @__gxx_personality_v0 {
  %5 = alloca [1 x %struct.__va_list_tag], align 16
  %6 = ptrtoint double* %0 to i64
  %7 = load i64, i64* getelementptr inbounds (%"class.std::unordered_map.84", %"class.std::unordered_map.84"* @ptrToEPMidx, i64 0, i32 0, i32 1), align 8
  %8 = urem i64 %6, %7
  %9 = load %"struct.std::__detail::_Hash_node_base"**, %"struct.std::__detail::_Hash_node_base"*** getelementptr inbounds (%"class.std::unordered_map.84", %"class.std::unordered_map.84"* @ptrToEPMidx, i64 0, i32 0, i32 0), align 8
  %10 = getelementptr inbounds %"struct.std::__detail::_Hash_node_base"*, %"struct.std::__detail::_Hash_node_base"** %9, i64 %8
  %11 = load %"struct.std::__detail::_Hash_node_base"*, %"struct.std::__detail::_Hash_node_base"** %10, align 8
  %.not.i.i.i.i = icmp eq %"struct.std::__detail::_Hash_node_base"* %11, null
  br i1 %.not.i.i.i.i, label %_ZNSt13unordered_mapIPdSt4pairIjjESt4hashIS0_ESt8equal_toIS0_ESaIS1_IKS0_S2_EEE4findERS7_.exit.thread, label %12

12:                                               ; preds = %4
  %13 = bitcast %"struct.std::__detail::_Hash_node_base"* %11 to %"struct.std::__detail::_Hash_node"**
  %14 = load %"struct.std::__detail::_Hash_node"*, %"struct.std::__detail::_Hash_node"** %13, align 8
  %15 = getelementptr inbounds %"struct.std::__detail::_Hash_node", %"struct.std::__detail::_Hash_node"* %14, i64 0, i32 1, i32 0, i32 0, i32 0, i32 0, i64 0
  %16 = bitcast i8* %15 to double**
  %17 = load double*, double** %16, align 8
  %18 = icmp eq double* %17, %0
  br i1 %18, label %_ZNSt13unordered_mapIPdSt4pairIjjESt4hashIS0_ESt8equal_toIS0_ESaIS1_IKS0_S2_EEE4findERS7_.exit, label %.lr.ph.i.i.i.i

19:                                               ; preds = %24
  %20 = icmp eq double* %27, %0
  br i1 %20, label %_ZNSt13unordered_mapIPdSt4pairIjjESt4hashIS0_ESt8equal_toIS0_ESaIS1_IKS0_S2_EEE4findERS7_.exit, label %.lr.ph.i.i.i.i, !llvm.loop !11

.lr.ph.i.i.i.i:                                   ; preds = %12, %19
  %.018.i.i.i.i = phi %"struct.std::__detail::_Hash_node"* [ %23, %19 ], [ %14, %12 ]
  %21 = getelementptr inbounds %"struct.std::__detail::_Hash_node", %"struct.std::__detail::_Hash_node"* %.018.i.i.i.i, i64 0, i32 0, i32 0
  %22 = load %"struct.std::__detail::_Hash_node_base"*, %"struct.std::__detail::_Hash_node_base"** %21, align 8
  %.not16.i.i.i.i = icmp eq %"struct.std::__detail::_Hash_node_base"* %22, null
  %23 = bitcast %"struct.std::__detail::_Hash_node_base"* %22 to %"struct.std::__detail::_Hash_node"*
  br i1 %.not16.i.i.i.i, label %_ZNSt13unordered_mapIPdSt4pairIjjESt4hashIS0_ESt8equal_toIS0_ESaIS1_IKS0_S2_EEE4findERS7_.exit.thread, label %24

24:                                               ; preds = %.lr.ph.i.i.i.i
  %25 = getelementptr inbounds %"struct.std::__detail::_Hash_node_base", %"struct.std::__detail::_Hash_node_base"* %22, i64 1
  %26 = bitcast %"struct.std::__detail::_Hash_node_base"* %25 to double**
  %27 = load double*, double** %26, align 8
  %28 = ptrtoint double* %27 to i64
  %29 = urem i64 %28, %7
  %.not17.i.i.i.i = icmp eq i64 %29, %8
  br i1 %.not17.i.i.i.i, label %19, label %_ZNSt13unordered_mapIPdSt4pairIjjESt4hashIS0_ESt8equal_toIS0_ESaIS1_IKS0_S2_EEE4findERS7_.exit.thread, !llvm.loop !11

_ZNSt13unordered_mapIPdSt4pairIjjESt4hashIS0_ESt8equal_toIS0_ESaIS1_IKS0_S2_EEE4findERS7_.exit: ; preds = %19, %12
  %30 = bitcast [1 x %struct.__va_list_tag]* %5 to i8*
  call void @llvm.va_start(i8* nonnull %30)
  %31 = load %struct.UpdateOptData*, %struct.UpdateOptData** @UOData, align 8
  %32 = getelementptr inbounds %struct.UpdateOptData, %struct.UpdateOptData* %31, i64 0, i32 7, i32 0, i32 0, i32 0, i32 0
  %33 = load double*, double** %32, align 8
  %34 = getelementptr inbounds %struct.UpdateOptData, %struct.UpdateOptData* %31, i64 0, i32 7, i32 0, i32 0, i32 0, i32 1
  %35 = load double*, double** %34, align 8
  %.not5.i.i.i.i = icmp eq double* %33, %35
  br i1 %.not5.i.i.i.i, label %_ZSt4fillIN9__gnu_cxx17__normal_iteratorIPdSt6vectorIdSaIdEEEEiEvT_S7_RKT0_.exit, label %.lr.ph.i.i.i.i31.preheader

.lr.ph.i.i.i.i31.preheader:                       ; preds = %_ZNSt13unordered_mapIPdSt4pairIjjESt4hashIS0_ESt8equal_toIS0_ESaIS1_IKS0_S2_EEE4findERS7_.exit
  %36 = ptrtoint double* %35 to i64
  %37 = ptrtoint double* %33 to i64
  %38 = bitcast double* %33 to i8*
  %39 = add i64 %36, -8
  %40 = sub i64 %39, %37
  %41 = add i64 %40, 8
  %42 = and i64 %41, -8
  call void @llvm.memset.p0i8.i64(i8* align 8 %38, i8 0, i64 %42, i1 false)
  br label %_ZSt4fillIN9__gnu_cxx17__normal_iteratorIPdSt6vectorIdSaIdEEEEiEvT_S7_RKT0_.exit

_ZSt4fillIN9__gnu_cxx17__normal_iteratorIPdSt6vectorIdSaIdEEEEiEvT_S7_RKT0_.exit: ; preds = %.lr.ph.i.i.i.i31.preheader, %_ZNSt13unordered_mapIPdSt4pairIjjESt4hashIS0_ESt8equal_toIS0_ESaIS1_IKS0_S2_EEE4findERS7_.exit
  %43 = load i64, i64* getelementptr inbounds (%"class.std::unordered_map.84", %"class.std::unordered_map.84"* @ptrToEPMidx, i64 0, i32 0, i32 1), align 8
  %44 = urem i64 %6, %43
  %45 = load %"struct.std::__detail::_Hash_node_base"**, %"struct.std::__detail::_Hash_node_base"*** getelementptr inbounds (%"class.std::unordered_map.84", %"class.std::unordered_map.84"* @ptrToEPMidx, i64 0, i32 0, i32 0), align 8
  %46 = getelementptr inbounds %"struct.std::__detail::_Hash_node_base"*, %"struct.std::__detail::_Hash_node_base"** %45, i64 %44
  %47 = load %"struct.std::__detail::_Hash_node_base"*, %"struct.std::__detail::_Hash_node_base"** %46, align 8
  %.not.i.i.i.i32 = icmp eq %"struct.std::__detail::_Hash_node_base"* %47, null
  br i1 %.not.i.i.i.i32, label %.loopexit.i.i, label %48

48:                                               ; preds = %_ZSt4fillIN9__gnu_cxx17__normal_iteratorIPdSt6vectorIdSaIdEEEEiEvT_S7_RKT0_.exit
  %49 = bitcast %"struct.std::__detail::_Hash_node_base"* %47 to %"struct.std::__detail::_Hash_node"**
  %50 = load %"struct.std::__detail::_Hash_node"*, %"struct.std::__detail::_Hash_node"** %49, align 8
  %51 = getelementptr inbounds %"struct.std::__detail::_Hash_node", %"struct.std::__detail::_Hash_node"* %50, i64 0, i32 1, i32 0, i32 0, i32 0, i32 0, i64 0
  %52 = bitcast i8* %51 to double**
  %53 = load double*, double** %52, align 8
  %54 = icmp eq double* %53, %0
  br i1 %54, label %_ZNSt13unordered_mapIPdSt4pairIjjESt4hashIS0_ESt8equal_toIS0_ESaIS1_IKS0_S2_EEEixERS7_.exit, label %.lr.ph.i.i.i.i35

55:                                               ; preds = %60
  %56 = icmp eq double* %63, %0
  br i1 %56, label %_ZNSt13unordered_mapIPdSt4pairIjjESt4hashIS0_ESt8equal_toIS0_ESaIS1_IKS0_S2_EEEixERS7_.exit.loopexit, label %.lr.ph.i.i.i.i35, !llvm.loop !11

.lr.ph.i.i.i.i35:                                 ; preds = %48, %55
  %.018.i.i.i.i33 = phi %"struct.std::__detail::_Hash_node"* [ %59, %55 ], [ %50, %48 ]
  %57 = getelementptr inbounds %"struct.std::__detail::_Hash_node", %"struct.std::__detail::_Hash_node"* %.018.i.i.i.i33, i64 0, i32 0, i32 0
  %58 = load %"struct.std::__detail::_Hash_node_base"*, %"struct.std::__detail::_Hash_node_base"** %57, align 8
  %.not16.i.i.i.i34 = icmp eq %"struct.std::__detail::_Hash_node_base"* %58, null
  %59 = bitcast %"struct.std::__detail::_Hash_node_base"* %58 to %"struct.std::__detail::_Hash_node"*
  br i1 %.not16.i.i.i.i34, label %.loopexit.i.i, label %60

60:                                               ; preds = %.lr.ph.i.i.i.i35
  %61 = getelementptr inbounds %"struct.std::__detail::_Hash_node_base", %"struct.std::__detail::_Hash_node_base"* %58, i64 1
  %62 = bitcast %"struct.std::__detail::_Hash_node_base"* %61 to double**
  %63 = load double*, double** %62, align 8
  %64 = ptrtoint double* %63 to i64
  %65 = urem i64 %64, %43
  %.not17.i.i.i.i36 = icmp eq i64 %65, %44
  br i1 %.not17.i.i.i.i36, label %55, label %.loopexit.i.i, !llvm.loop !11

.loopexit.i.i:                                    ; preds = %60, %.lr.ph.i.i.i.i35, %_ZSt4fillIN9__gnu_cxx17__normal_iteratorIPdSt6vectorIdSaIdEEEEiEvT_S7_RKT0_.exit
  %66 = call noalias nonnull i8* @_Znwm(i64 24) #24
  %67 = bitcast i8* %66 to %"struct.std::__detail::_Hash_node_base"**
  store %"struct.std::__detail::_Hash_node_base"* null, %"struct.std::__detail::_Hash_node_base"** %67, align 8
  %68 = getelementptr inbounds i8, i8* %66, i64 8
  %69 = bitcast i8* %68 to double**
  store double* %0, double** %69, align 8
  %70 = getelementptr inbounds i8, i8* %66, i64 16
  %71 = bitcast i8* %70 to i32*
  store i32 0, i32* %71, align 8
  %72 = getelementptr inbounds i8, i8* %66, i64 20
  %73 = bitcast i8* %72 to i32*
  store i32 0, i32* %73, align 4
  %74 = bitcast i8* %66 to %"struct.std::__detail::_Hash_node"*
  %75 = invoke %"struct.std::__detail::_Hash_node"* @_ZNSt10_HashtableIPdSt4pairIKS0_S1_IjjEESaIS4_ENSt8__detail10_Select1stESt8equal_toIS0_ESt4hashIS0_ENS6_18_Mod_range_hashingENS6_20_Default_ranged_hashENS6_20_Prime_rehash_policyENS6_17_Hashtable_traitsILb0ELb0ELb1EEEE21_M_insert_unique_nodeEmmPNS6_10_Hash_nodeIS4_Lb0EEEm(%"class.std::_Hashtable.85"* nonnull align 8 dereferenceable(56) getelementptr inbounds (%"class.std::unordered_map.84", %"class.std::unordered_map.84"* @ptrToEPMidx, i64 0, i32 0), i64 %44, i64 %6, %"struct.std::__detail::_Hash_node"* nonnull %74, i64 1)
          to label %_ZNSt13unordered_mapIPdSt4pairIjjESt4hashIS0_ESt8equal_toIS0_ESaIS1_IKS0_S2_EEEixERS7_.exit unwind label %_ZNSt10_HashtableIPdSt4pairIKS0_S1_IjjEESaIS4_ENSt8__detail10_Select1stESt8equal_toIS0_ESt4hashIS0_ENS6_18_Mod_range_hashingENS6_20_Default_ranged_hashENS6_20_Prime_rehash_policyENS6_17_Hashtable_traitsILb0ELb0ELb1EEEE12_Scoped_nodeD2Ev.exit20.i.i

common.resume:                                    ; preds = %_ZNSt10_HashtableIPdSt4pairIKS0_jESaIS3_ENSt8__detail10_Select1stESt8equal_toIS0_ESt4hashIS0_ENS5_18_Mod_range_hashingENS5_20_Default_ranged_hashENS5_20_Prime_rehash_policyENS5_17_Hashtable_traitsILb0ELb0ELb1EEEE12_Scoped_nodeD2Ev.exit20.i.i, %296, %_ZNSt10_HashtableIPdSt4pairIKS0_jESaIS3_ENSt8__detail10_Select1stESt8equal_toIS0_ESt4hashIS0_ENS5_18_Mod_range_hashingENS5_20_Default_ranged_hashENS5_20_Prime_rehash_policyENS5_17_Hashtable_traitsILb0ELb0ELb1EEEE12_Scoped_nodeD2Ev.exit20.i.i70, %_ZNSt10_HashtableIPdSt4pairIKS0_S1_IjjEESaIS4_ENSt8__detail10_Select1stESt8equal_toIS0_ESt4hashIS0_ENS6_18_Mod_range_hashingENS6_20_Default_ranged_hashENS6_20_Prime_rehash_policyENS6_17_Hashtable_traitsILb0ELb0ELb1EEEE12_Scoped_nodeD2Ev.exit20.i.i51, %_ZNSt10_HashtableIPdSt4pairIKS0_S1_IjjEESaIS4_ENSt8__detail10_Select1stESt8equal_toIS0_ESt4hashIS0_ENS6_18_Mod_range_hashingENS6_20_Default_ranged_hashENS6_20_Prime_rehash_policyENS6_17_Hashtable_traitsILb0ELb0ELb1EEEE12_Scoped_nodeD2Ev.exit20.i.i
  %.sink = phi i8* [ %386, %_ZNSt10_HashtableIPdSt4pairIKS0_jESaIS3_ENSt8__detail10_Select1stESt8equal_toIS0_ESt4hashIS0_ENS5_18_Mod_range_hashingENS5_20_Default_ranged_hashENS5_20_Prime_rehash_policyENS5_17_Hashtable_traitsILb0ELb0ELb1EEEE12_Scoped_nodeD2Ev.exit20.i.i70 ], [ %149, %_ZNSt10_HashtableIPdSt4pairIKS0_S1_IjjEESaIS4_ENSt8__detail10_Select1stESt8equal_toIS0_ESt4hashIS0_ENS6_18_Mod_range_hashingENS6_20_Default_ranged_hashENS6_20_Prime_rehash_policyENS6_17_Hashtable_traitsILb0ELb0ELb1EEEE12_Scoped_nodeD2Ev.exit20.i.i51 ], [ %66, %_ZNSt10_HashtableIPdSt4pairIKS0_S1_IjjEESaIS4_ENSt8__detail10_Select1stESt8equal_toIS0_ESt4hashIS0_ENS6_18_Mod_range_hashingENS6_20_Default_ranged_hashENS6_20_Prime_rehash_policyENS6_17_Hashtable_traitsILb0ELb0ELb1EEEE12_Scoped_nodeD2Ev.exit20.i.i ], [ %229, %_ZNSt10_HashtableIPdSt4pairIKS0_jESaIS3_ENSt8__detail10_Select1stESt8equal_toIS0_ESt4hashIS0_ENS5_18_Mod_range_hashingENS5_20_Default_ranged_hashENS5_20_Prime_rehash_policyENS5_17_Hashtable_traitsILb0ELb0ELb1EEEE12_Scoped_nodeD2Ev.exit20.i.i ], [ %229, %296 ]
  %common.resume.op = phi { i8*, i32 } [ %394, %_ZNSt10_HashtableIPdSt4pairIKS0_jESaIS3_ENSt8__detail10_Select1stESt8equal_toIS0_ESt4hashIS0_ENS5_18_Mod_range_hashingENS5_20_Default_ranged_hashENS5_20_Prime_rehash_policyENS5_17_Hashtable_traitsILb0ELb0ELb1EEEE12_Scoped_nodeD2Ev.exit20.i.i70 ], [ %159, %_ZNSt10_HashtableIPdSt4pairIKS0_S1_IjjEESaIS4_ENSt8__detail10_Select1stESt8equal_toIS0_ESt4hashIS0_ENS6_18_Mod_range_hashingENS6_20_Default_ranged_hashENS6_20_Prime_rehash_policyENS6_17_Hashtable_traitsILb0ELb0ELb1EEEE12_Scoped_nodeD2Ev.exit20.i.i51 ], [ %76, %_ZNSt10_HashtableIPdSt4pairIKS0_S1_IjjEESaIS4_ENSt8__detail10_Select1stESt8equal_toIS0_ESt4hashIS0_ENS6_18_Mod_range_hashingENS6_20_Default_ranged_hashENS6_20_Prime_rehash_policyENS6_17_Hashtable_traitsILb0ELb0ELb1EEEE12_Scoped_nodeD2Ev.exit20.i.i ], [ %335, %_ZNSt10_HashtableIPdSt4pairIKS0_jESaIS3_ENSt8__detail10_Select1stESt8equal_toIS0_ESt4hashIS0_ENS5_18_Mod_range_hashingENS5_20_Default_ranged_hashENS5_20_Prime_rehash_policyENS5_17_Hashtable_traitsILb0ELb0ELb1EEEE12_Scoped_nodeD2Ev.exit20.i.i ], [ %297, %296 ]
  call void @_ZdlPv(i8* nonnull %.sink) #23
  resume { i8*, i32 } %common.resume.op

_ZNSt10_HashtableIPdSt4pairIKS0_S1_IjjEESaIS4_ENSt8__detail10_Select1stESt8equal_toIS0_ESt4hashIS0_ENS6_18_Mod_range_hashingENS6_20_Default_ranged_hashENS6_20_Prime_rehash_policyENS6_17_Hashtable_traitsILb0ELb0ELb1EEEE12_Scoped_nodeD2Ev.exit20.i.i: ; preds = %.loopexit.i.i
  %76 = landingpad { i8*, i32 }
          cleanup
  br label %common.resume

_ZNSt13unordered_mapIPdSt4pairIjjESt4hashIS0_ESt8equal_toIS0_ESaIS1_IKS0_S2_EEEixERS7_.exit.loopexit: ; preds = %55
  %77 = bitcast %"struct.std::__detail::_Hash_node_base"* %58 to %"struct.std::__detail::_Hash_node"*
  br label %_ZNSt13unordered_mapIPdSt4pairIjjESt4hashIS0_ESt8equal_toIS0_ESaIS1_IKS0_S2_EEEixERS7_.exit

_ZNSt13unordered_mapIPdSt4pairIjjESt4hashIS0_ESt8equal_toIS0_ESaIS1_IKS0_S2_EEEixERS7_.exit: ; preds = %_ZNSt13unordered_mapIPdSt4pairIjjESt4hashIS0_ESt8equal_toIS0_ESaIS1_IKS0_S2_EEEixERS7_.exit.loopexit, %48, %.loopexit.i.i
  %.0.i.pn.i.i = phi %"struct.std::__detail::_Hash_node"* [ %50, %48 ], [ %75, %.loopexit.i.i ], [ %77, %_ZNSt13unordered_mapIPdSt4pairIjjESt4hashIS0_ESt8equal_toIS0_ESaIS1_IKS0_S2_EEEixERS7_.exit.loopexit ]
  %.0.i.i = getelementptr inbounds %"struct.std::__detail::_Hash_node", %"struct.std::__detail::_Hash_node"* %.0.i.pn.i.i, i64 0, i32 1, i32 0, i32 0, i32 0, i32 0, i64 8
  %78 = bitcast i8* %.0.i.i to i32*
  %79 = load i32, i32* %78, align 4
  %80 = zext i32 %79 to i64
  %81 = load %"class.std::vector"*, %"class.std::vector"** getelementptr inbounds (%"class.std::vector.59", %"class.std::vector.59"* @EPM, i64 0, i32 0, i32 0, i32 0, i32 0), align 8
  %82 = getelementptr inbounds %"class.std::vector", %"class.std::vector"* %81, i64 %80
  %83 = call nonnull align 8 dereferenceable(24) %"class.std::vector"* @_ZNSt6vectorIdSaIdEEaSERKS1_(%"class.std::vector"* nonnull align 8 dereferenceable(24) @new_row, %"class.std::vector"* nonnull align 8 dereferenceable(24) %82)
  %84 = getelementptr inbounds [1 x %struct.__va_list_tag], [1 x %struct.__va_list_tag]* %5, i64 0, i64 0, i32 0
  %85 = getelementptr inbounds [1 x %struct.__va_list_tag], [1 x %struct.__va_list_tag]* %5, i64 0, i64 0, i32 2
  %86 = getelementptr inbounds [1 x %struct.__va_list_tag], [1 x %struct.__va_list_tag]* %5, i64 0, i64 0, i32 3
  %87 = getelementptr inbounds [1 x %struct.__va_list_tag], [1 x %struct.__va_list_tag]* %5, i64 0, i64 0, i32 1
  %.not131 = icmp eq i32 %3, 0
  br i1 %.not131, label %._crit_edge, label %.lr.ph129

.lr.ph129:                                        ; preds = %_ZNSt13unordered_mapIPdSt4pairIjjESt4hashIS0_ESt8equal_toIS0_ESaIS1_IKS0_S2_EEEixERS7_.exit, %_ZNSt13unordered_mapIPdSt4pairIjjESt4hashIS0_ESt8equal_toIS0_ESaIS1_IKS0_S2_EEE4findERS7_.exit44.thread
  %.025126 = phi i32 [ %357, %_ZNSt13unordered_mapIPdSt4pairIjjESt4hashIS0_ESt8equal_toIS0_ESaIS1_IKS0_S2_EEE4findERS7_.exit44.thread ], [ 0, %_ZNSt13unordered_mapIPdSt4pairIjjESt4hashIS0_ESt8equal_toIS0_ESaIS1_IKS0_S2_EEEixERS7_.exit ]
  %88 = load i32, i32* %84, align 16
  %89 = icmp ult i32 %88, 41
  br i1 %89, label %90, label %95

90:                                               ; preds = %.lr.ph129
  %91 = load i8*, i8** %86, align 16
  %92 = zext i32 %88 to i64
  %93 = getelementptr i8, i8* %91, i64 %92
  %94 = add nuw nsw i32 %88, 8
  store i32 %94, i32* %84, align 16
  br label %98

95:                                               ; preds = %.lr.ph129
  %96 = load i8*, i8** %85, align 8
  %97 = getelementptr i8, i8* %96, i64 8
  store i8* %97, i8** %85, align 8
  br label %98

98:                                               ; preds = %95, %90
  %.in = phi i8* [ %93, %90 ], [ %96, %95 ]
  %99 = bitcast i8* %.in to double**
  %100 = load double*, double** %99, align 8
  %101 = load i32, i32* %87, align 4
  %102 = icmp ult i32 %101, 161
  br i1 %102, label %103, label %108

103:                                              ; preds = %98
  %104 = load i8*, i8** %86, align 16
  %105 = zext i32 %101 to i64
  %106 = getelementptr i8, i8* %104, i64 %105
  %107 = add nuw nsw i32 %101, 16
  store i32 %107, i32* %87, align 4
  br label %111

108:                                              ; preds = %98
  %109 = load i8*, i8** %85, align 8
  %110 = getelementptr i8, i8* %109, i64 8
  store i8* %110, i8** %85, align 8
  br label %111

111:                                              ; preds = %108, %103
  %.in29 = phi i8* [ %106, %103 ], [ %109, %108 ]
  %112 = bitcast i8* %.in29 to double*
  %113 = load double, double* %112, align 8
  %114 = ptrtoint double* %100 to i64
  %115 = load i64, i64* getelementptr inbounds (%"class.std::unordered_map.84", %"class.std::unordered_map.84"* @ptrToEPMidx, i64 0, i32 0, i32 1), align 8
  %116 = urem i64 %114, %115
  %117 = load %"struct.std::__detail::_Hash_node_base"**, %"struct.std::__detail::_Hash_node_base"*** getelementptr inbounds (%"class.std::unordered_map.84", %"class.std::unordered_map.84"* @ptrToEPMidx, i64 0, i32 0, i32 0), align 8
  %118 = getelementptr inbounds %"struct.std::__detail::_Hash_node_base"*, %"struct.std::__detail::_Hash_node_base"** %117, i64 %116
  %119 = load %"struct.std::__detail::_Hash_node_base"*, %"struct.std::__detail::_Hash_node_base"** %118, align 8
  %.not.i.i.i.i37 = icmp eq %"struct.std::__detail::_Hash_node_base"* %119, null
  br i1 %.not.i.i.i.i37, label %_ZNSt13unordered_mapIPdSt4pairIjjESt4hashIS0_ESt8equal_toIS0_ESaIS1_IKS0_S2_EEE4findERS7_.exit44.thread, label %120

120:                                              ; preds = %111
  %121 = bitcast %"struct.std::__detail::_Hash_node_base"* %119 to %"struct.std::__detail::_Hash_node"**
  %122 = load %"struct.std::__detail::_Hash_node"*, %"struct.std::__detail::_Hash_node"** %121, align 8
  %123 = getelementptr inbounds %"struct.std::__detail::_Hash_node", %"struct.std::__detail::_Hash_node"* %122, i64 0, i32 1, i32 0, i32 0, i32 0, i32 0, i64 0
  %124 = bitcast i8* %123 to double**
  %125 = load double*, double** %124, align 8
  %126 = icmp eq double* %100, %125
  br i1 %126, label %_ZNSt13unordered_mapIPdSt4pairIjjESt4hashIS0_ESt8equal_toIS0_ESaIS1_IKS0_S2_EEEixERS7_.exit55, label %.lr.ph.i.i.i.i40

127:                                              ; preds = %132
  %128 = icmp eq double* %100, %135
  br i1 %128, label %_ZNSt13unordered_mapIPdSt4pairIjjESt4hashIS0_ESt8equal_toIS0_ESaIS1_IKS0_S2_EEE4findERS7_.exit44.thread98, label %.lr.ph.i.i.i.i40, !llvm.loop !11

.lr.ph.i.i.i.i40:                                 ; preds = %120, %127
  %.018.i.i.i.i38 = phi %"struct.std::__detail::_Hash_node"* [ %131, %127 ], [ %122, %120 ]
  %129 = getelementptr inbounds %"struct.std::__detail::_Hash_node", %"struct.std::__detail::_Hash_node"* %.018.i.i.i.i38, i64 0, i32 0, i32 0
  %130 = load %"struct.std::__detail::_Hash_node_base"*, %"struct.std::__detail::_Hash_node_base"** %129, align 8
  %.not16.i.i.i.i39 = icmp eq %"struct.std::__detail::_Hash_node_base"* %130, null
  %131 = bitcast %"struct.std::__detail::_Hash_node_base"* %130 to %"struct.std::__detail::_Hash_node"*
  br i1 %.not16.i.i.i.i39, label %_ZNSt13unordered_mapIPdSt4pairIjjESt4hashIS0_ESt8equal_toIS0_ESaIS1_IKS0_S2_EEE4findERS7_.exit44.thread, label %132

132:                                              ; preds = %.lr.ph.i.i.i.i40
  %133 = getelementptr inbounds %"struct.std::__detail::_Hash_node_base", %"struct.std::__detail::_Hash_node_base"* %130, i64 1
  %134 = bitcast %"struct.std::__detail::_Hash_node_base"* %133 to double**
  %135 = load double*, double** %134, align 8
  %136 = ptrtoint double* %135 to i64
  %137 = urem i64 %136, %115
  %.not17.i.i.i.i41 = icmp eq i64 %137, %116
  br i1 %.not17.i.i.i.i41, label %127, label %_ZNSt13unordered_mapIPdSt4pairIjjESt4hashIS0_ESt8equal_toIS0_ESaIS1_IKS0_S2_EEE4findERS7_.exit44.thread, !llvm.loop !11

_ZNSt13unordered_mapIPdSt4pairIjjESt4hashIS0_ESt8equal_toIS0_ESaIS1_IKS0_S2_EEE4findERS7_.exit44.thread98: ; preds = %127
  br i1 %126, label %_ZNSt13unordered_mapIPdSt4pairIjjESt4hashIS0_ESt8equal_toIS0_ESaIS1_IKS0_S2_EEEixERS7_.exit55, label %.lr.ph.i.i.i.i48

138:                                              ; preds = %143
  %139 = icmp eq double* %100, %146
  br i1 %139, label %_ZNSt13unordered_mapIPdSt4pairIjjESt4hashIS0_ESt8equal_toIS0_ESaIS1_IKS0_S2_EEEixERS7_.exit55.loopexit, label %.lr.ph.i.i.i.i48, !llvm.loop !11

.lr.ph.i.i.i.i48:                                 ; preds = %_ZNSt13unordered_mapIPdSt4pairIjjESt4hashIS0_ESt8equal_toIS0_ESaIS1_IKS0_S2_EEE4findERS7_.exit44.thread98, %138
  %.018.i.i.i.i46 = phi %"struct.std::__detail::_Hash_node"* [ %142, %138 ], [ %122, %_ZNSt13unordered_mapIPdSt4pairIjjESt4hashIS0_ESt8equal_toIS0_ESaIS1_IKS0_S2_EEE4findERS7_.exit44.thread98 ]
  %140 = getelementptr inbounds %"struct.std::__detail::_Hash_node", %"struct.std::__detail::_Hash_node"* %.018.i.i.i.i46, i64 0, i32 0, i32 0
  %141 = load %"struct.std::__detail::_Hash_node_base"*, %"struct.std::__detail::_Hash_node_base"** %140, align 8
  %.not16.i.i.i.i47 = icmp eq %"struct.std::__detail::_Hash_node_base"* %141, null
  %142 = bitcast %"struct.std::__detail::_Hash_node_base"* %141 to %"struct.std::__detail::_Hash_node"*
  br i1 %.not16.i.i.i.i47, label %.loopexit.i.i50, label %143

143:                                              ; preds = %.lr.ph.i.i.i.i48
  %144 = getelementptr inbounds %"struct.std::__detail::_Hash_node_base", %"struct.std::__detail::_Hash_node_base"* %141, i64 1
  %145 = bitcast %"struct.std::__detail::_Hash_node_base"* %144 to double**
  %146 = load double*, double** %145, align 8
  %147 = ptrtoint double* %146 to i64
  %148 = urem i64 %147, %115
  %.not17.i.i.i.i49 = icmp eq i64 %148, %116
  br i1 %.not17.i.i.i.i49, label %138, label %.loopexit.i.i50, !llvm.loop !11

.loopexit.i.i50:                                  ; preds = %143, %.lr.ph.i.i.i.i48
  %149 = call noalias nonnull i8* @_Znwm(i64 24) #24
  %150 = bitcast i8* %149 to %"struct.std::__detail::_Hash_node_base"**
  store %"struct.std::__detail::_Hash_node_base"* null, %"struct.std::__detail::_Hash_node_base"** %150, align 8
  %151 = getelementptr inbounds i8, i8* %149, i64 8
  %152 = bitcast i8* %151 to double**
  store double* %100, double** %152, align 8
  %153 = getelementptr inbounds i8, i8* %149, i64 16
  %154 = bitcast i8* %153 to i32*
  store i32 0, i32* %154, align 8
  %155 = getelementptr inbounds i8, i8* %149, i64 20
  %156 = bitcast i8* %155 to i32*
  store i32 0, i32* %156, align 4
  %157 = bitcast i8* %149 to %"struct.std::__detail::_Hash_node"*
  %158 = invoke %"struct.std::__detail::_Hash_node"* @_ZNSt10_HashtableIPdSt4pairIKS0_S1_IjjEESaIS4_ENSt8__detail10_Select1stESt8equal_toIS0_ESt4hashIS0_ENS6_18_Mod_range_hashingENS6_20_Default_ranged_hashENS6_20_Prime_rehash_policyENS6_17_Hashtable_traitsILb0ELb0ELb1EEEE21_M_insert_unique_nodeEmmPNS6_10_Hash_nodeIS4_Lb0EEEm(%"class.std::_Hashtable.85"* nonnull align 8 dereferenceable(56) getelementptr inbounds (%"class.std::unordered_map.84", %"class.std::unordered_map.84"* @ptrToEPMidx, i64 0, i32 0), i64 %116, i64 %114, %"struct.std::__detail::_Hash_node"* nonnull %157, i64 1)
          to label %_ZNSt13unordered_mapIPdSt4pairIjjESt4hashIS0_ESt8equal_toIS0_ESaIS1_IKS0_S2_EEEixERS7_.exit55 unwind label %_ZNSt10_HashtableIPdSt4pairIKS0_S1_IjjEESaIS4_ENSt8__detail10_Select1stESt8equal_toIS0_ESt4hashIS0_ENS6_18_Mod_range_hashingENS6_20_Default_ranged_hashENS6_20_Prime_rehash_policyENS6_17_Hashtable_traitsILb0ELb0ELb1EEEE12_Scoped_nodeD2Ev.exit20.i.i51

_ZNSt10_HashtableIPdSt4pairIKS0_S1_IjjEESaIS4_ENSt8__detail10_Select1stESt8equal_toIS0_ESt4hashIS0_ENS6_18_Mod_range_hashingENS6_20_Default_ranged_hashENS6_20_Prime_rehash_policyENS6_17_Hashtable_traitsILb0ELb0ELb1EEEE12_Scoped_nodeD2Ev.exit20.i.i51: ; preds = %.loopexit.i.i50
  %159 = landingpad { i8*, i32 }
          cleanup
  br label %common.resume

_ZNSt13unordered_mapIPdSt4pairIjjESt4hashIS0_ESt8equal_toIS0_ESaIS1_IKS0_S2_EEEixERS7_.exit55.loopexit: ; preds = %138
  %160 = bitcast %"struct.std::__detail::_Hash_node_base"* %141 to %"struct.std::__detail::_Hash_node"*
  br label %_ZNSt13unordered_mapIPdSt4pairIjjESt4hashIS0_ESt8equal_toIS0_ESaIS1_IKS0_S2_EEEixERS7_.exit55

_ZNSt13unordered_mapIPdSt4pairIjjESt4hashIS0_ESt8equal_toIS0_ESaIS1_IKS0_S2_EEEixERS7_.exit55: ; preds = %_ZNSt13unordered_mapIPdSt4pairIjjESt4hashIS0_ESt8equal_toIS0_ESaIS1_IKS0_S2_EEEixERS7_.exit55.loopexit, %120, %_ZNSt13unordered_mapIPdSt4pairIjjESt4hashIS0_ESt8equal_toIS0_ESaIS1_IKS0_S2_EEE4findERS7_.exit44.thread98, %.loopexit.i.i50
  %.0.i.pn.i.i53 = phi %"struct.std::__detail::_Hash_node"* [ %122, %_ZNSt13unordered_mapIPdSt4pairIjjESt4hashIS0_ESt8equal_toIS0_ESaIS1_IKS0_S2_EEE4findERS7_.exit44.thread98 ], [ %158, %.loopexit.i.i50 ], [ %122, %120 ], [ %160, %_ZNSt13unordered_mapIPdSt4pairIjjESt4hashIS0_ESt8equal_toIS0_ESaIS1_IKS0_S2_EEEixERS7_.exit55.loopexit ]
  %.0.i.i54 = getelementptr inbounds %"struct.std::__detail::_Hash_node", %"struct.std::__detail::_Hash_node"* %.0.i.pn.i.i53, i64 0, i32 1, i32 0, i32 0, i32 0, i32 0, i64 8
  %161 = load %struct.UpdateOptData*, %struct.UpdateOptData** @UOData, align 8
  %162 = getelementptr inbounds %struct.UpdateOptData, %struct.UpdateOptData* %161, i64 0, i32 3, i32 0, i32 0, i32 0, i32 0, i32 0
  %163 = getelementptr inbounds i8, i8* %162, i64 24
  %164 = bitcast i8* %163 to %"struct.std::_Rb_tree_node_base"**
  %165 = load %"struct.std::_Rb_tree_node_base"*, %"struct.std::_Rb_tree_node_base"** %164, align 8
  %166 = getelementptr inbounds i8, i8* %162, i64 8
  %167 = bitcast i8* %166 to %"struct.std::_Rb_tree_node_base"*
  %168 = bitcast i8* %.0.i.i54 to i32*
  %.not118 = icmp eq %"struct.std::_Rb_tree_node_base"* %165, %167
  br i1 %.not118, label %.preheader, label %.lr.ph

.lr.ph:                                           ; preds = %_ZNSt13unordered_mapIPdSt4pairIjjESt4hashIS0_ESt8equal_toIS0_ESaIS1_IKS0_S2_EEEixERS7_.exit55
  %169 = icmp eq i32 %.025126, 0
  br i1 %169, label %.lr.ph.split.us, label %.lr.ph.split

.lr.ph.split.us:                                  ; preds = %.lr.ph, %.lr.ph.split.us
  %.sroa.080.0119.us = phi %"struct.std::_Rb_tree_node_base"* [ %183, %.lr.ph.split.us ], [ %165, %.lr.ph ]
  %170 = getelementptr inbounds %"struct.std::_Rb_tree_node_base", %"struct.std::_Rb_tree_node_base"* %.sroa.080.0119.us, i64 1, i32 0
  %171 = load i32, i32* %168, align 4
  %172 = zext i32 %171 to i64
  %173 = load %"class.std::vector"*, %"class.std::vector"** getelementptr inbounds (%"class.std::vector.59", %"class.std::vector.59"* @EPM, i64 0, i32 0, i32 0, i32 0, i32 0), align 8
  %174 = load i32, i32* %170, align 4
  %175 = zext i32 %174 to i64
  %176 = getelementptr inbounds %"class.std::vector", %"class.std::vector"* %173, i64 %172, i32 0, i32 0, i32 0, i32 0
  %177 = load double*, double** %176, align 8
  %178 = getelementptr inbounds double, double* %177, i64 %175
  %179 = load double, double* %178, align 8
  %180 = fmul double %113, %179
  %181 = load double*, double** getelementptr inbounds (%"class.std::vector", %"class.std::vector"* @new_row, i64 0, i32 0, i32 0, i32 0, i32 0), align 16
  %182 = getelementptr inbounds double, double* %181, i64 %175
  store double %180, double* %182, align 8
  %183 = call %"struct.std::_Rb_tree_node_base"* @_ZSt18_Rb_tree_incrementPKSt18_Rb_tree_node_base(%"struct.std::_Rb_tree_node_base"* nonnull %.sroa.080.0119.us) #26
  %.not.us = icmp eq %"struct.std::_Rb_tree_node_base"* %183, %167
  br i1 %.not.us, label %.preheader, label %.lr.ph.split.us

.preheader:                                       ; preds = %.lr.ph.split, %.lr.ph.split.us, %_ZNSt13unordered_mapIPdSt4pairIjjESt4hashIS0_ESt8equal_toIS0_ESaIS1_IKS0_S2_EEEixERS7_.exit55
  %184 = load %struct.UpdateOptData*, %struct.UpdateOptData** @UOData, align 8
  %185 = getelementptr inbounds %struct.UpdateOptData, %struct.UpdateOptData* %184, i64 0, i32 1, i32 0, i32 3
  %186 = load i64, i64* %185, align 8
  %.not132 = icmp eq i64 %186, 0
  br i1 %.not132, label %_ZNSt13unordered_mapIPdSt4pairIjjESt4hashIS0_ESt8equal_toIS0_ESaIS1_IKS0_S2_EEE4findERS7_.exit44.thread, label %.lr.ph125

.lr.ph.split:                                     ; preds = %.lr.ph, %.lr.ph.split
  %.sroa.080.0119 = phi %"struct.std::_Rb_tree_node_base"* [ %202, %.lr.ph.split ], [ %165, %.lr.ph ]
  %187 = getelementptr inbounds %"struct.std::_Rb_tree_node_base", %"struct.std::_Rb_tree_node_base"* %.sroa.080.0119, i64 1, i32 0
  %188 = load i32, i32* %168, align 4
  %189 = zext i32 %188 to i64
  %190 = load %"class.std::vector"*, %"class.std::vector"** getelementptr inbounds (%"class.std::vector.59", %"class.std::vector.59"* @EPM, i64 0, i32 0, i32 0, i32 0, i32 0), align 8
  %191 = load i32, i32* %187, align 4
  %192 = zext i32 %191 to i64
  %193 = getelementptr inbounds %"class.std::vector", %"class.std::vector"* %190, i64 %189, i32 0, i32 0, i32 0, i32 0
  %194 = load double*, double** %193, align 8
  %195 = getelementptr inbounds double, double* %194, i64 %192
  %196 = load double, double* %195, align 8
  %197 = fmul double %113, %196
  %198 = load double*, double** getelementptr inbounds (%"class.std::vector", %"class.std::vector"* @new_row, i64 0, i32 0, i32 0, i32 0, i32 0), align 16
  %199 = getelementptr inbounds double, double* %198, i64 %192
  %200 = load double, double* %199, align 8
  %201 = fadd double %197, %200
  store double %201, double* %199, align 8
  %202 = call %"struct.std::_Rb_tree_node_base"* @_ZSt18_Rb_tree_incrementPKSt18_Rb_tree_node_base(%"struct.std::_Rb_tree_node_base"* nonnull %.sroa.080.0119) #26
  %.not = icmp eq %"struct.std::_Rb_tree_node_base"* %202, %167
  br i1 %.not, label %.preheader, label %.lr.ph.split

.lr.ph125:                                        ; preds = %.preheader, %_ZNSt13unordered_mapIPdjSt4hashIS0_ESt8equal_toIS0_ESaISt4pairIKS0_jEEEixERS6_.exit
  %indvars.iv = phi i64 [ %indvars.iv.next, %_ZNSt13unordered_mapIPdjSt4hashIS0_ESt8equal_toIS0_ESaISt4pairIKS0_jEEEixERS6_.exit ], [ 0, %.preheader ]
  %203 = phi %struct.UpdateOptData* [ %353, %_ZNSt13unordered_mapIPdjSt4hashIS0_ESt8equal_toIS0_ESaISt4pairIKS0_jEEEixERS6_.exit ], [ %184, %.preheader ]
  %204 = getelementptr inbounds %struct.UpdateOptData, %struct.UpdateOptData* %203, i64 0, i32 0, i32 0, i32 1
  %205 = load i64, i64* %204, align 8
  %206 = urem i64 %114, %205
  %207 = getelementptr inbounds %struct.UpdateOptData, %struct.UpdateOptData* %203, i64 0, i32 0, i32 0, i32 0
  %208 = load %"struct.std::__detail::_Hash_node_base"**, %"struct.std::__detail::_Hash_node_base"*** %207, align 8
  %209 = getelementptr inbounds %"struct.std::__detail::_Hash_node_base"*, %"struct.std::__detail::_Hash_node_base"** %208, i64 %206
  %210 = load %"struct.std::__detail::_Hash_node_base"*, %"struct.std::__detail::_Hash_node_base"** %209, align 8
  %.not.i.i.i.i56 = icmp eq %"struct.std::__detail::_Hash_node_base"* %210, null
  br i1 %.not.i.i.i.i56, label %.loopexit.i.i61, label %211

211:                                              ; preds = %.lr.ph125
  %212 = bitcast %"struct.std::__detail::_Hash_node_base"* %210 to %"struct.std::__detail::_Hash_node.210"**
  %213 = load %"struct.std::__detail::_Hash_node.210"*, %"struct.std::__detail::_Hash_node.210"** %212, align 8
  %214 = getelementptr inbounds %"struct.std::__detail::_Hash_node.210", %"struct.std::__detail::_Hash_node.210"* %213, i64 0, i32 1, i32 0, i32 0, i32 0, i32 0, i64 0
  %215 = bitcast i8* %214 to double**
  %216 = load double*, double** %215, align 8
  %217 = icmp eq double* %100, %216
  br i1 %217, label %_ZNSt13unordered_mapIPdjSt4hashIS0_ESt8equal_toIS0_ESaISt4pairIKS0_jEEEixERS6_.exit, label %.lr.ph.i.i.i.i59

218:                                              ; preds = %223
  %219 = icmp eq double* %100, %226
  br i1 %219, label %_ZNSt13unordered_mapIPdjSt4hashIS0_ESt8equal_toIS0_ESaISt4pairIKS0_jEEEixERS6_.exit.loopexit, label %.lr.ph.i.i.i.i59, !llvm.loop !15

.lr.ph.i.i.i.i59:                                 ; preds = %211, %218
  %.018.i.i.i.i57 = phi %"struct.std::__detail::_Hash_node.210"* [ %222, %218 ], [ %213, %211 ]
  %220 = getelementptr inbounds %"struct.std::__detail::_Hash_node.210", %"struct.std::__detail::_Hash_node.210"* %.018.i.i.i.i57, i64 0, i32 0, i32 0
  %221 = load %"struct.std::__detail::_Hash_node_base"*, %"struct.std::__detail::_Hash_node_base"** %220, align 8
  %.not16.i.i.i.i58 = icmp eq %"struct.std::__detail::_Hash_node_base"* %221, null
  %222 = bitcast %"struct.std::__detail::_Hash_node_base"* %221 to %"struct.std::__detail::_Hash_node.210"*
  br i1 %.not16.i.i.i.i58, label %.loopexit.i.i61, label %223

223:                                              ; preds = %.lr.ph.i.i.i.i59
  %224 = getelementptr inbounds %"struct.std::__detail::_Hash_node_base", %"struct.std::__detail::_Hash_node_base"* %221, i64 1
  %225 = bitcast %"struct.std::__detail::_Hash_node_base"* %224 to double**
  %226 = load double*, double** %225, align 8
  %227 = ptrtoint double* %226 to i64
  %228 = urem i64 %227, %205
  %.not17.i.i.i.i60 = icmp eq i64 %228, %206
  br i1 %.not17.i.i.i.i60, label %218, label %.loopexit.i.i61, !llvm.loop !15

.loopexit.i.i61:                                  ; preds = %223, %.lr.ph.i.i.i.i59, %.lr.ph125
  %229 = call noalias nonnull i8* @_Znwm(i64 24) #24
  %230 = bitcast i8* %229 to %"struct.std::__detail::_Hash_node_base"**
  store %"struct.std::__detail::_Hash_node_base"* null, %"struct.std::__detail::_Hash_node_base"** %230, align 8
  %231 = getelementptr inbounds i8, i8* %229, i64 8
  %232 = bitcast i8* %231 to double**
  store double* %100, double** %232, align 8
  %233 = getelementptr inbounds i8, i8* %229, i64 16
  %234 = bitcast i8* %233 to i32*
  store i32 0, i32* %234, align 8
  %235 = bitcast i8* %229 to %"struct.std::__detail::_Hash_node.210"*
  %236 = getelementptr inbounds %struct.UpdateOptData, %struct.UpdateOptData* %203, i64 0, i32 0, i32 0, i32 4
  %237 = getelementptr inbounds %struct.UpdateOptData, %struct.UpdateOptData* %203, i64 0, i32 0, i32 0, i32 4, i32 1
  %238 = load i64, i64* %237, align 8
  %239 = load i64, i64* %204, align 8
  %240 = getelementptr inbounds %struct.UpdateOptData, %struct.UpdateOptData* %203, i64 0, i32 0, i32 0, i32 3
  %241 = load i64, i64* %240, align 8
  %242 = invoke { i8, i64 } @_ZNKSt8__detail20_Prime_rehash_policy14_M_need_rehashEmmm(%"struct.std::__detail::_Prime_rehash_policy"* nonnull align 8 dereferenceable(16) %236, i64 %239, i64 %241, i64 1)
          to label %.noexc unwind label %_ZNSt10_HashtableIPdSt4pairIKS0_jESaIS3_ENSt8__detail10_Select1stESt8equal_toIS0_ESt4hashIS0_ENS5_18_Mod_range_hashingENS5_20_Default_ranged_hashENS5_20_Prime_rehash_policyENS5_17_Hashtable_traitsILb0ELb0ELb1EEEE12_Scoped_nodeD2Ev.exit20.i.i

.noexc:                                           ; preds = %.loopexit.i.i61
  %243 = extractvalue { i8, i64 } %242, 0
  %244 = and i8 %243, 1
  %.not.i = icmp eq i8 %244, 0
  br i1 %.not.i, label %.noexc._crit_edge, label %245

.noexc._crit_edge:                                ; preds = %.noexc
  %.pre = load %"struct.std::__detail::_Hash_node_base"**, %"struct.std::__detail::_Hash_node_base"*** %207, align 8
  br label %303

245:                                              ; preds = %.noexc
  %246 = extractvalue { i8, i64 } %242, 1
  %247 = icmp eq i64 %246, 1
  br i1 %247, label %248, label %250

248:                                              ; preds = %245
  %249 = getelementptr inbounds %struct.UpdateOptData, %struct.UpdateOptData* %203, i64 0, i32 0, i32 0, i32 5
  store %"struct.std::__detail::_Hash_node_base"* null, %"struct.std::__detail::_Hash_node_base"** %249, align 8
  br label %_ZNSt10_HashtableIPdSt4pairIKS0_jESaIS3_ENSt8__detail10_Select1stESt8equal_toIS0_ESt4hashIS0_ENS5_18_Mod_range_hashingENS5_20_Default_ranged_hashENS5_20_Prime_rehash_policyENS5_17_Hashtable_traitsILb0ELb0ELb1EEEE19_M_allocate_bucketsEm.exit.i

250:                                              ; preds = %245
  %251 = icmp ugt i64 %246, 1152921504606846975
  br i1 %251, label %252, label %_ZNSt8__detail16_Hashtable_allocISaINS_10_Hash_nodeISt4pairIKPdjELb0EEEEE19_M_allocate_bucketsEm.exit.i.i

252:                                              ; preds = %250
  %253 = extractvalue { i8, i64 } %242, 1
  %254 = icmp ugt i64 %253, 2305843009213693951
  br i1 %254, label %.noexc.i.i.i, label %.noexc7.i.i.i

.noexc.i.i.i:                                     ; preds = %252
  invoke void @_ZSt28__throw_bad_array_new_lengthv() #25
          to label %.noexc77 unwind label %.loopexit.split-lp

.noexc77:                                         ; preds = %.noexc.i.i.i
  unreachable

.noexc7.i.i.i:                                    ; preds = %252
  invoke void @_ZSt17__throw_bad_allocv() #25
          to label %.noexc78 unwind label %.loopexit.split-lp

.noexc78:                                         ; preds = %.noexc7.i.i.i
  unreachable

_ZNSt8__detail16_Hashtable_allocISaINS_10_Hash_nodeISt4pairIKPdjELb0EEEEE19_M_allocate_bucketsEm.exit.i.i: ; preds = %250
  %255 = shl nuw nsw i64 %246, 3
  %256 = invoke noalias nonnull i8* @_Znwm(i64 %255) #24
          to label %.noexc79 unwind label %.loopexit

.noexc79:                                         ; preds = %_ZNSt8__detail16_Hashtable_allocISaINS_10_Hash_nodeISt4pairIKPdjELb0EEEEE19_M_allocate_bucketsEm.exit.i.i
  %257 = bitcast i8* %256 to %"struct.std::__detail::_Hash_node_base"**
  call void @llvm.memset.p0i8.i64(i8* nonnull align 8 %256, i8 0, i64 %255, i1 false)
  br label %_ZNSt10_HashtableIPdSt4pairIKS0_jESaIS3_ENSt8__detail10_Select1stESt8equal_toIS0_ESt4hashIS0_ENS5_18_Mod_range_hashingENS5_20_Default_ranged_hashENS5_20_Prime_rehash_policyENS5_17_Hashtable_traitsILb0ELb0ELb1EEEE19_M_allocate_bucketsEm.exit.i

_ZNSt10_HashtableIPdSt4pairIKS0_jESaIS3_ENSt8__detail10_Select1stESt8equal_toIS0_ESt4hashIS0_ENS5_18_Mod_range_hashingENS5_20_Default_ranged_hashENS5_20_Prime_rehash_policyENS5_17_Hashtable_traitsILb0ELb0ELb1EEEE19_M_allocate_bucketsEm.exit.i: ; preds = %.noexc79, %248
  %.0.i.i75 = phi %"struct.std::__detail::_Hash_node_base"** [ %249, %248 ], [ %257, %.noexc79 ]
  %258 = getelementptr inbounds %struct.UpdateOptData, %struct.UpdateOptData* %203, i64 0, i32 0, i32 0, i32 2, i32 0
  %259 = bitcast %"struct.std::__detail::_Hash_node_base"** %258 to %"struct.std::__detail::_Hash_node.210"**
  %260 = load %"struct.std::__detail::_Hash_node.210"*, %"struct.std::__detail::_Hash_node.210"** %259, align 8
  %261 = getelementptr inbounds %struct.UpdateOptData, %struct.UpdateOptData* %203, i64 0, i32 0, i32 0, i32 2
  %262 = getelementptr inbounds %"struct.std::__detail::_Hash_node_base", %"struct.std::__detail::_Hash_node_base"* %261, i64 0, i32 0
  store %"struct.std::__detail::_Hash_node_base"* null, %"struct.std::__detail::_Hash_node_base"** %262, align 8
  %.not29.i = icmp eq %"struct.std::__detail::_Hash_node.210"* %260, null
  br i1 %.not29.i, label %._crit_edge.i, label %.lr.ph.i

.lr.ph.i:                                         ; preds = %_ZNSt10_HashtableIPdSt4pairIKS0_jESaIS3_ENSt8__detail10_Select1stESt8equal_toIS0_ESt4hashIS0_ENS5_18_Mod_range_hashingENS5_20_Default_ranged_hashENS5_20_Prime_rehash_policyENS5_17_Hashtable_traitsILb0ELb0ELb1EEEE19_M_allocate_bucketsEm.exit.i, %286
  %.031.i = phi %"struct.std::__detail::_Hash_node.210"* [ %264, %286 ], [ %260, %_ZNSt10_HashtableIPdSt4pairIKS0_jESaIS3_ENSt8__detail10_Select1stESt8equal_toIS0_ESt4hashIS0_ENS5_18_Mod_range_hashingENS5_20_Default_ranged_hashENS5_20_Prime_rehash_policyENS5_17_Hashtable_traitsILb0ELb0ELb1EEEE19_M_allocate_bucketsEm.exit.i ]
  %.02530.i = phi i64 [ %.1.i, %286 ], [ 0, %_ZNSt10_HashtableIPdSt4pairIKS0_jESaIS3_ENSt8__detail10_Select1stESt8equal_toIS0_ESt4hashIS0_ENS5_18_Mod_range_hashingENS5_20_Default_ranged_hashENS5_20_Prime_rehash_policyENS5_17_Hashtable_traitsILb0ELb0ELb1EEEE19_M_allocate_bucketsEm.exit.i ]
  %263 = bitcast %"struct.std::__detail::_Hash_node.210"* %.031.i to %"struct.std::__detail::_Hash_node.210"**
  %264 = load %"struct.std::__detail::_Hash_node.210"*, %"struct.std::__detail::_Hash_node.210"** %263, align 8
  %265 = getelementptr inbounds %"struct.std::__detail::_Hash_node.210", %"struct.std::__detail::_Hash_node.210"* %.031.i, i64 0, i32 1, i32 0, i32 0, i32 0, i32 0, i64 0
  %266 = bitcast i8* %265 to double**
  %267 = load double*, double** %266, align 8
  %268 = ptrtoint double* %267 to i64
  %269 = urem i64 %268, %246
  %270 = getelementptr inbounds %"struct.std::__detail::_Hash_node_base"*, %"struct.std::__detail::_Hash_node_base"** %.0.i.i75, i64 %269
  %271 = load %"struct.std::__detail::_Hash_node_base"*, %"struct.std::__detail::_Hash_node_base"** %270, align 8
  %.not27.i = icmp eq %"struct.std::__detail::_Hash_node_base"* %271, null
  br i1 %.not27.i, label %272, label %279

272:                                              ; preds = %.lr.ph.i
  %273 = load %"struct.std::__detail::_Hash_node_base"*, %"struct.std::__detail::_Hash_node_base"** %262, align 8
  %274 = getelementptr %"struct.std::__detail::_Hash_node.210", %"struct.std::__detail::_Hash_node.210"* %.031.i, i64 0, i32 0
  %275 = getelementptr inbounds %"struct.std::__detail::_Hash_node.210", %"struct.std::__detail::_Hash_node.210"* %.031.i, i64 0, i32 0, i32 0
  store %"struct.std::__detail::_Hash_node_base"* %273, %"struct.std::__detail::_Hash_node_base"** %275, align 8
  store %"struct.std::__detail::_Hash_node_base"* %274, %"struct.std::__detail::_Hash_node_base"** %262, align 8
  store %"struct.std::__detail::_Hash_node_base"* %261, %"struct.std::__detail::_Hash_node_base"** %270, align 8
  %276 = load %"struct.std::__detail::_Hash_node_base"*, %"struct.std::__detail::_Hash_node_base"** %275, align 8
  %.not28.i = icmp eq %"struct.std::__detail::_Hash_node_base"* %276, null
  br i1 %.not28.i, label %286, label %277

277:                                              ; preds = %272
  %278 = getelementptr inbounds %"struct.std::__detail::_Hash_node_base"*, %"struct.std::__detail::_Hash_node_base"** %.0.i.i75, i64 %.02530.i
  store %"struct.std::__detail::_Hash_node_base"* %274, %"struct.std::__detail::_Hash_node_base"** %278, align 8
  br label %286

279:                                              ; preds = %.lr.ph.i
  %280 = getelementptr inbounds %"struct.std::__detail::_Hash_node_base", %"struct.std::__detail::_Hash_node_base"* %271, i64 0, i32 0
  %281 = load %"struct.std::__detail::_Hash_node_base"*, %"struct.std::__detail::_Hash_node_base"** %280, align 8
  %282 = getelementptr %"struct.std::__detail::_Hash_node.210", %"struct.std::__detail::_Hash_node.210"* %.031.i, i64 0, i32 0
  %283 = getelementptr inbounds %"struct.std::__detail::_Hash_node.210", %"struct.std::__detail::_Hash_node.210"* %.031.i, i64 0, i32 0, i32 0
  store %"struct.std::__detail::_Hash_node_base"* %281, %"struct.std::__detail::_Hash_node_base"** %283, align 8
  %284 = load %"struct.std::__detail::_Hash_node_base"*, %"struct.std::__detail::_Hash_node_base"** %270, align 8
  %285 = getelementptr inbounds %"struct.std::__detail::_Hash_node_base", %"struct.std::__detail::_Hash_node_base"* %284, i64 0, i32 0
  store %"struct.std::__detail::_Hash_node_base"* %282, %"struct.std::__detail::_Hash_node_base"** %285, align 8
  br label %286

286:                                              ; preds = %279, %277, %272
  %.1.i = phi i64 [ %.02530.i, %279 ], [ %269, %277 ], [ %269, %272 ]
  %.not.i76 = icmp eq %"struct.std::__detail::_Hash_node.210"* %264, null
  br i1 %.not.i76, label %._crit_edge.i, label %.lr.ph.i, !llvm.loop !16

._crit_edge.i:                                    ; preds = %286, %_ZNSt10_HashtableIPdSt4pairIKS0_jESaIS3_ENSt8__detail10_Select1stESt8equal_toIS0_ESt4hashIS0_ENS5_18_Mod_range_hashingENS5_20_Default_ranged_hashENS5_20_Prime_rehash_policyENS5_17_Hashtable_traitsILb0ELb0ELb1EEEE19_M_allocate_bucketsEm.exit.i
  %287 = load %"struct.std::__detail::_Hash_node_base"**, %"struct.std::__detail::_Hash_node_base"*** %207, align 8
  %288 = getelementptr inbounds %struct.UpdateOptData, %struct.UpdateOptData* %203, i64 0, i32 0, i32 0, i32 5
  %289 = icmp eq %"struct.std::__detail::_Hash_node_base"** %288, %287
  br i1 %289, label %_ZNSt10_HashtableIPdSt4pairIKS0_jESaIS3_ENSt8__detail10_Select1stESt8equal_toIS0_ESt4hashIS0_ENS5_18_Mod_range_hashingENS5_20_Default_ranged_hashENS5_20_Prime_rehash_policyENS5_17_Hashtable_traitsILb0ELb0ELb1EEEE9_M_rehashEmRKm.exit.i, label %290

290:                                              ; preds = %._crit_edge.i
  %291 = bitcast %"struct.std::__detail::_Hash_node_base"** %287 to i8*
  call void @_ZdlPv(i8* %291) #23
  br label %_ZNSt10_HashtableIPdSt4pairIKS0_jESaIS3_ENSt8__detail10_Select1stESt8equal_toIS0_ESt4hashIS0_ENS5_18_Mod_range_hashingENS5_20_Default_ranged_hashENS5_20_Prime_rehash_policyENS5_17_Hashtable_traitsILb0ELb0ELb1EEEE9_M_rehashEmRKm.exit.i

.loopexit:                                        ; preds = %_ZNSt8__detail16_Hashtable_allocISaINS_10_Hash_nodeISt4pairIKPdjELb0EEEEE19_M_allocate_bucketsEm.exit.i.i
  %lpad.loopexit = landingpad { i8*, i32 }
          catch i8* null
  br label %292

.loopexit.split-lp:                               ; preds = %.noexc.i.i.i, %.noexc7.i.i.i
  %lpad.loopexit.split-lp = landingpad { i8*, i32 }
          catch i8* null
  br label %292

292:                                              ; preds = %.loopexit.split-lp, %.loopexit
  %lpad.phi = phi { i8*, i32 } [ %lpad.loopexit, %.loopexit ], [ %lpad.loopexit.split-lp, %.loopexit.split-lp ]
  %293 = getelementptr inbounds %struct.UpdateOptData, %struct.UpdateOptData* %203, i64 0, i32 0, i32 0, i32 4, i32 1
  %294 = extractvalue { i8*, i32 } %lpad.phi, 0
  %295 = call i8* @__cxa_begin_catch(i8* %294) #23
  store i64 %238, i64* %293, align 8
  invoke void @__cxa_rethrow() #25
          to label %301 unwind label %296

296:                                              ; preds = %292
  %297 = landingpad { i8*, i32 }
          cleanup
  invoke void @__cxa_end_catch()
          to label %common.resume unwind label %298

298:                                              ; preds = %296
  %299 = landingpad { i8*, i32 }
          catch i8* null
  %300 = extractvalue { i8*, i32 } %299, 0
  call void @__clang_call_terminate(i8* %300) #15
  unreachable

301:                                              ; preds = %292
  unreachable

_ZNSt10_HashtableIPdSt4pairIKS0_jESaIS3_ENSt8__detail10_Select1stESt8equal_toIS0_ESt4hashIS0_ENS5_18_Mod_range_hashingENS5_20_Default_ranged_hashENS5_20_Prime_rehash_policyENS5_17_Hashtable_traitsILb0ELb0ELb1EEEE9_M_rehashEmRKm.exit.i: ; preds = %290, %._crit_edge.i
  store i64 %246, i64* %204, align 8
  store %"struct.std::__detail::_Hash_node_base"** %.0.i.i75, %"struct.std::__detail::_Hash_node_base"*** %207, align 8
  %302 = urem i64 %114, %246
  br label %303

303:                                              ; preds = %.noexc._crit_edge, %_ZNSt10_HashtableIPdSt4pairIKS0_jESaIS3_ENSt8__detail10_Select1stESt8equal_toIS0_ESt4hashIS0_ENS5_18_Mod_range_hashingENS5_20_Default_ranged_hashENS5_20_Prime_rehash_policyENS5_17_Hashtable_traitsILb0ELb0ELb1EEEE9_M_rehashEmRKm.exit.i
  %304 = phi %"struct.std::__detail::_Hash_node_base"** [ %.0.i.i75, %_ZNSt10_HashtableIPdSt4pairIKS0_jESaIS3_ENSt8__detail10_Select1stESt8equal_toIS0_ESt4hashIS0_ENS5_18_Mod_range_hashingENS5_20_Default_ranged_hashENS5_20_Prime_rehash_policyENS5_17_Hashtable_traitsILb0ELb0ELb1EEEE9_M_rehashEmRKm.exit.i ], [ %.pre, %.noexc._crit_edge ]
  %.0.i = phi i64 [ %302, %_ZNSt10_HashtableIPdSt4pairIKS0_jESaIS3_ENSt8__detail10_Select1stESt8equal_toIS0_ESt4hashIS0_ENS5_18_Mod_range_hashingENS5_20_Default_ranged_hashENS5_20_Prime_rehash_policyENS5_17_Hashtable_traitsILb0ELb0ELb1EEEE9_M_rehashEmRKm.exit.i ], [ %206, %.noexc._crit_edge ]
  %305 = getelementptr inbounds %"struct.std::__detail::_Hash_node_base"*, %"struct.std::__detail::_Hash_node_base"** %304, i64 %.0.i
  %306 = load %"struct.std::__detail::_Hash_node_base"*, %"struct.std::__detail::_Hash_node_base"** %305, align 8
  %.not.i.i = icmp eq %"struct.std::__detail::_Hash_node_base"* %306, null
  br i1 %.not.i.i, label %314, label %307

307:                                              ; preds = %303
  %308 = getelementptr inbounds %"struct.std::__detail::_Hash_node_base", %"struct.std::__detail::_Hash_node_base"* %306, i64 0, i32 0
  %309 = load %"struct.std::__detail::_Hash_node_base"*, %"struct.std::__detail::_Hash_node_base"** %308, align 8
  store %"struct.std::__detail::_Hash_node_base"* %309, %"struct.std::__detail::_Hash_node_base"** %230, align 8
  %310 = load %"struct.std::__detail::_Hash_node_base"**, %"struct.std::__detail::_Hash_node_base"*** %207, align 8
  %311 = getelementptr inbounds %"struct.std::__detail::_Hash_node_base"*, %"struct.std::__detail::_Hash_node_base"** %310, i64 %.0.i
  %312 = bitcast %"struct.std::__detail::_Hash_node_base"** %311 to i8***
  %313 = load i8**, i8*** %312, align 8
  store i8* %229, i8** %313, align 8
  br label %_ZNSt10_HashtableIPdSt4pairIKS0_jESaIS3_ENSt8__detail10_Select1stESt8equal_toIS0_ESt4hashIS0_ENS5_18_Mod_range_hashingENS5_20_Default_ranged_hashENS5_20_Prime_rehash_policyENS5_17_Hashtable_traitsILb0ELb0ELb1EEEE21_M_insert_unique_nodeEmmPNS5_10_Hash_nodeIS3_Lb0EEEm.exit

314:                                              ; preds = %303
  %315 = getelementptr inbounds %struct.UpdateOptData, %struct.UpdateOptData* %203, i64 0, i32 0, i32 0, i32 2
  %316 = getelementptr inbounds %"struct.std::__detail::_Hash_node_base", %"struct.std::__detail::_Hash_node_base"* %315, i64 0, i32 0
  %317 = load %"struct.std::__detail::_Hash_node_base"*, %"struct.std::__detail::_Hash_node_base"** %316, align 8
  store %"struct.std::__detail::_Hash_node_base"* %317, %"struct.std::__detail::_Hash_node_base"** %230, align 8
  %318 = bitcast %"struct.std::__detail::_Hash_node_base"* %315 to i8**
  store i8* %229, i8** %318, align 8
  %319 = load %"struct.std::__detail::_Hash_node_base"*, %"struct.std::__detail::_Hash_node_base"** %230, align 8
  %.not11.i.i = icmp eq %"struct.std::__detail::_Hash_node_base"* %319, null
  br i1 %.not11.i.i, label %330, label %320

320:                                              ; preds = %314
  %321 = load %"struct.std::__detail::_Hash_node_base"**, %"struct.std::__detail::_Hash_node_base"*** %207, align 8
  %322 = getelementptr inbounds %"struct.std::__detail::_Hash_node_base", %"struct.std::__detail::_Hash_node_base"* %319, i64 1
  %323 = load i64, i64* %204, align 8
  %324 = bitcast %"struct.std::__detail::_Hash_node_base"* %322 to double**
  %325 = load double*, double** %324, align 8
  %326 = ptrtoint double* %325 to i64
  %327 = urem i64 %326, %323
  %328 = getelementptr inbounds %"struct.std::__detail::_Hash_node_base"*, %"struct.std::__detail::_Hash_node_base"** %321, i64 %327
  %329 = bitcast %"struct.std::__detail::_Hash_node_base"** %328 to i8**
  store i8* %229, i8** %329, align 8
  br label %330

330:                                              ; preds = %320, %314
  %331 = load %"struct.std::__detail::_Hash_node_base"**, %"struct.std::__detail::_Hash_node_base"*** %207, align 8
  %332 = getelementptr inbounds %"struct.std::__detail::_Hash_node_base"*, %"struct.std::__detail::_Hash_node_base"** %331, i64 %.0.i
  store %"struct.std::__detail::_Hash_node_base"* %315, %"struct.std::__detail::_Hash_node_base"** %332, align 8
  br label %_ZNSt10_HashtableIPdSt4pairIKS0_jESaIS3_ENSt8__detail10_Select1stESt8equal_toIS0_ESt4hashIS0_ENS5_18_Mod_range_hashingENS5_20_Default_ranged_hashENS5_20_Prime_rehash_policyENS5_17_Hashtable_traitsILb0ELb0ELb1EEEE21_M_insert_unique_nodeEmmPNS5_10_Hash_nodeIS3_Lb0EEEm.exit

_ZNSt10_HashtableIPdSt4pairIKS0_jESaIS3_ENSt8__detail10_Select1stESt8equal_toIS0_ESt4hashIS0_ENS5_18_Mod_range_hashingENS5_20_Default_ranged_hashENS5_20_Prime_rehash_policyENS5_17_Hashtable_traitsILb0ELb0ELb1EEEE21_M_insert_unique_nodeEmmPNS5_10_Hash_nodeIS3_Lb0EEEm.exit: ; preds = %307, %330
  %333 = load i64, i64* %240, align 8
  %334 = add i64 %333, 1
  store i64 %334, i64* %240, align 8
  %.pre152 = load %struct.UpdateOptData*, %struct.UpdateOptData** @UOData, align 8
  br label %_ZNSt13unordered_mapIPdjSt4hashIS0_ESt8equal_toIS0_ESaISt4pairIKS0_jEEEixERS6_.exit

_ZNSt10_HashtableIPdSt4pairIKS0_jESaIS3_ENSt8__detail10_Select1stESt8equal_toIS0_ESt4hashIS0_ENS5_18_Mod_range_hashingENS5_20_Default_ranged_hashENS5_20_Prime_rehash_policyENS5_17_Hashtable_traitsILb0ELb0ELb1EEEE12_Scoped_nodeD2Ev.exit20.i.i: ; preds = %.loopexit.i.i61
  %335 = landingpad { i8*, i32 }
          cleanup
  br label %common.resume

_ZNSt13unordered_mapIPdjSt4hashIS0_ESt8equal_toIS0_ESaISt4pairIKS0_jEEEixERS6_.exit.loopexit: ; preds = %218
  %336 = bitcast %"struct.std::__detail::_Hash_node_base"* %221 to %"struct.std::__detail::_Hash_node.210"*
  br label %_ZNSt13unordered_mapIPdjSt4hashIS0_ESt8equal_toIS0_ESaISt4pairIKS0_jEEEixERS6_.exit

_ZNSt13unordered_mapIPdjSt4hashIS0_ESt8equal_toIS0_ESaISt4pairIKS0_jEEEixERS6_.exit: ; preds = %_ZNSt13unordered_mapIPdjSt4hashIS0_ESt8equal_toIS0_ESaISt4pairIKS0_jEEEixERS6_.exit.loopexit, %_ZNSt10_HashtableIPdSt4pairIKS0_jESaIS3_ENSt8__detail10_Select1stESt8equal_toIS0_ESt4hashIS0_ENS5_18_Mod_range_hashingENS5_20_Default_ranged_hashENS5_20_Prime_rehash_policyENS5_17_Hashtable_traitsILb0ELb0ELb1EEEE21_M_insert_unique_nodeEmmPNS5_10_Hash_nodeIS3_Lb0EEEm.exit, %211
  %337 = phi %struct.UpdateOptData* [ %203, %211 ], [ %.pre152, %_ZNSt10_HashtableIPdSt4pairIKS0_jESaIS3_ENSt8__detail10_Select1stESt8equal_toIS0_ESt4hashIS0_ENS5_18_Mod_range_hashingENS5_20_Default_ranged_hashENS5_20_Prime_rehash_policyENS5_17_Hashtable_traitsILb0ELb0ELb1EEEE21_M_insert_unique_nodeEmmPNS5_10_Hash_nodeIS3_Lb0EEEm.exit ], [ %203, %_ZNSt13unordered_mapIPdjSt4hashIS0_ESt8equal_toIS0_ESaISt4pairIKS0_jEEEixERS6_.exit.loopexit ]
  %.0.i.pn.i.i62 = phi %"struct.std::__detail::_Hash_node.210"* [ %213, %211 ], [ %235, %_ZNSt10_HashtableIPdSt4pairIKS0_jESaIS3_ENSt8__detail10_Select1stESt8equal_toIS0_ESt4hashIS0_ENS5_18_Mod_range_hashingENS5_20_Default_ranged_hashENS5_20_Prime_rehash_policyENS5_17_Hashtable_traitsILb0ELb0ELb1EEEE21_M_insert_unique_nodeEmmPNS5_10_Hash_nodeIS3_Lb0EEEm.exit ], [ %336, %_ZNSt13unordered_mapIPdjSt4hashIS0_ESt8equal_toIS0_ESaISt4pairIKS0_jEEEixERS6_.exit.loopexit ]
  %.0.i.i63 = getelementptr inbounds %"struct.std::__detail::_Hash_node.210", %"struct.std::__detail::_Hash_node.210"* %.0.i.pn.i.i62, i64 0, i32 1, i32 0, i32 0, i32 0, i32 0, i64 8
  %338 = bitcast i8* %.0.i.i63 to i32*
  %339 = load i32, i32* %338, align 4
  %340 = zext i32 %339 to i64
  %341 = getelementptr inbounds %struct.UpdateOptData, %struct.UpdateOptData* %203, i64 0, i32 5, i32 0, i32 0, i32 0, i32 0
  %342 = load %"class.std::vector"*, %"class.std::vector"** %341, align 8
  %343 = getelementptr inbounds %"class.std::vector", %"class.std::vector"* %342, i64 %340, i32 0, i32 0, i32 0, i32 0
  %344 = load double*, double** %343, align 8
  %345 = getelementptr inbounds double, double* %344, i64 %indvars.iv
  %346 = load double, double* %345, align 8
  %347 = fmul double %113, %346
  %348 = getelementptr inbounds %struct.UpdateOptData, %struct.UpdateOptData* %337, i64 0, i32 7, i32 0, i32 0, i32 0, i32 0
  %349 = load double*, double** %348, align 8
  %350 = getelementptr inbounds double, double* %349, i64 %indvars.iv
  %351 = load double, double* %350, align 8
  %352 = fadd double %347, %351
  store double %352, double* %350, align 8
  %indvars.iv.next = add nuw i64 %indvars.iv, 1
  %353 = load %struct.UpdateOptData*, %struct.UpdateOptData** @UOData, align 8
  %354 = getelementptr inbounds %struct.UpdateOptData, %struct.UpdateOptData* %353, i64 0, i32 1, i32 0, i32 3
  %355 = load i64, i64* %354, align 8
  %356 = icmp ugt i64 %355, %indvars.iv.next
  br i1 %356, label %.lr.ph125, label %_ZNSt13unordered_mapIPdSt4pairIjjESt4hashIS0_ESt8equal_toIS0_ESaIS1_IKS0_S2_EEE4findERS7_.exit44.thread, !llvm.loop !17

_ZNSt13unordered_mapIPdSt4pairIjjESt4hashIS0_ESt8equal_toIS0_ESaIS1_IKS0_S2_EEE4findERS7_.exit44.thread: ; preds = %132, %.lr.ph.i.i.i.i40, %_ZNSt13unordered_mapIPdjSt4hashIS0_ESt8equal_toIS0_ESaISt4pairIKS0_jEEEixERS6_.exit, %.preheader, %111
  %357 = add nuw nsw i32 %.025126, 2
  %358 = icmp ult i32 %357, %3
  br i1 %358, label %.lr.ph129, label %._crit_edge, !llvm.loop !18

._crit_edge:                                      ; preds = %_ZNSt13unordered_mapIPdSt4pairIjjESt4hashIS0_ESt8equal_toIS0_ESaIS1_IKS0_S2_EEE4findERS7_.exit44.thread, %_ZNSt13unordered_mapIPdSt4pairIjjESt4hashIS0_ESt8equal_toIS0_ESaIS1_IKS0_S2_EEEixERS7_.exit
  %359 = load %struct.UpdateOptData*, %struct.UpdateOptData** @UOData, align 8
  %360 = getelementptr inbounds %struct.UpdateOptData, %struct.UpdateOptData* %359, i64 0, i32 0, i32 0
  %361 = getelementptr inbounds %struct.UpdateOptData, %struct.UpdateOptData* %359, i64 0, i32 0, i32 0, i32 1
  %362 = load i64, i64* %361, align 8
  %363 = urem i64 %6, %362
  %364 = getelementptr inbounds %struct.UpdateOptData, %struct.UpdateOptData* %359, i64 0, i32 0, i32 0, i32 0
  %365 = load %"struct.std::__detail::_Hash_node_base"**, %"struct.std::__detail::_Hash_node_base"*** %364, align 8
  %366 = getelementptr inbounds %"struct.std::__detail::_Hash_node_base"*, %"struct.std::__detail::_Hash_node_base"** %365, i64 %363
  %367 = load %"struct.std::__detail::_Hash_node_base"*, %"struct.std::__detail::_Hash_node_base"** %366, align 8
  %.not.i.i.i.i64 = icmp eq %"struct.std::__detail::_Hash_node_base"* %367, null
  br i1 %.not.i.i.i.i64, label %.loopexit.i.i69, label %368

368:                                              ; preds = %._crit_edge
  %369 = bitcast %"struct.std::__detail::_Hash_node_base"* %367 to %"struct.std::__detail::_Hash_node.210"**
  %370 = load %"struct.std::__detail::_Hash_node.210"*, %"struct.std::__detail::_Hash_node.210"** %369, align 8
  %371 = getelementptr inbounds %"struct.std::__detail::_Hash_node.210", %"struct.std::__detail::_Hash_node.210"* %370, i64 0, i32 1, i32 0, i32 0, i32 0, i32 0, i64 0
  %372 = bitcast i8* %371 to double**
  %373 = load double*, double** %372, align 8
  %374 = icmp eq double* %373, %0
  br i1 %374, label %_ZNSt13unordered_mapIPdjSt4hashIS0_ESt8equal_toIS0_ESaISt4pairIKS0_jEEEixERS6_.exit74, label %.lr.ph.i.i.i.i67

375:                                              ; preds = %380
  %376 = icmp eq double* %383, %0
  br i1 %376, label %_ZNSt13unordered_mapIPdjSt4hashIS0_ESt8equal_toIS0_ESaISt4pairIKS0_jEEEixERS6_.exit74.loopexit, label %.lr.ph.i.i.i.i67, !llvm.loop !15

.lr.ph.i.i.i.i67:                                 ; preds = %368, %375
  %.018.i.i.i.i65 = phi %"struct.std::__detail::_Hash_node.210"* [ %379, %375 ], [ %370, %368 ]
  %377 = getelementptr inbounds %"struct.std::__detail::_Hash_node.210", %"struct.std::__detail::_Hash_node.210"* %.018.i.i.i.i65, i64 0, i32 0, i32 0
  %378 = load %"struct.std::__detail::_Hash_node_base"*, %"struct.std::__detail::_Hash_node_base"** %377, align 8
  %.not16.i.i.i.i66 = icmp eq %"struct.std::__detail::_Hash_node_base"* %378, null
  %379 = bitcast %"struct.std::__detail::_Hash_node_base"* %378 to %"struct.std::__detail::_Hash_node.210"*
  br i1 %.not16.i.i.i.i66, label %.loopexit.i.i69, label %380

380:                                              ; preds = %.lr.ph.i.i.i.i67
  %381 = getelementptr inbounds %"struct.std::__detail::_Hash_node_base", %"struct.std::__detail::_Hash_node_base"* %378, i64 1
  %382 = bitcast %"struct.std::__detail::_Hash_node_base"* %381 to double**
  %383 = load double*, double** %382, align 8
  %384 = ptrtoint double* %383 to i64
  %385 = urem i64 %384, %362
  %.not17.i.i.i.i68 = icmp eq i64 %385, %363
  br i1 %.not17.i.i.i.i68, label %375, label %.loopexit.i.i69, !llvm.loop !15

.loopexit.i.i69:                                  ; preds = %380, %.lr.ph.i.i.i.i67, %._crit_edge
  %386 = call noalias nonnull i8* @_Znwm(i64 24) #24
  %387 = bitcast i8* %386 to %"struct.std::__detail::_Hash_node_base"**
  store %"struct.std::__detail::_Hash_node_base"* null, %"struct.std::__detail::_Hash_node_base"** %387, align 8
  %388 = getelementptr inbounds i8, i8* %386, i64 8
  %389 = bitcast i8* %388 to double**
  store double* %0, double** %389, align 8
  %390 = getelementptr inbounds i8, i8* %386, i64 16
  %391 = bitcast i8* %390 to i32*
  store i32 0, i32* %391, align 8
  %392 = bitcast i8* %386 to %"struct.std::__detail::_Hash_node.210"*
  %393 = invoke %"struct.std::__detail::_Hash_node.210"* @_ZNSt10_HashtableIPdSt4pairIKS0_jESaIS3_ENSt8__detail10_Select1stESt8equal_toIS0_ESt4hashIS0_ENS5_18_Mod_range_hashingENS5_20_Default_ranged_hashENS5_20_Prime_rehash_policyENS5_17_Hashtable_traitsILb0ELb0ELb1EEEE21_M_insert_unique_nodeEmmPNS5_10_Hash_nodeIS3_Lb0EEEm(%"class.std::_Hashtable.10"* nonnull align 8 dereferenceable(56) %360, i64 %363, i64 %6, %"struct.std::__detail::_Hash_node.210"* nonnull %392, i64 1)
          to label %.loopexit.i.i69._ZNSt13unordered_mapIPdjSt4hashIS0_ESt8equal_toIS0_ESaISt4pairIKS0_jEEEixERS6_.exit74_crit_edge unwind label %_ZNSt10_HashtableIPdSt4pairIKS0_jESaIS3_ENSt8__detail10_Select1stESt8equal_toIS0_ESt4hashIS0_ENS5_18_Mod_range_hashingENS5_20_Default_ranged_hashENS5_20_Prime_rehash_policyENS5_17_Hashtable_traitsILb0ELb0ELb1EEEE12_Scoped_nodeD2Ev.exit20.i.i70

.loopexit.i.i69._ZNSt13unordered_mapIPdjSt4hashIS0_ESt8equal_toIS0_ESaISt4pairIKS0_jEEEixERS6_.exit74_crit_edge: ; preds = %.loopexit.i.i69
  %.pre153 = load %struct.UpdateOptData*, %struct.UpdateOptData** @UOData, align 8
  br label %_ZNSt13unordered_mapIPdjSt4hashIS0_ESt8equal_toIS0_ESaISt4pairIKS0_jEEEixERS6_.exit74

_ZNSt10_HashtableIPdSt4pairIKS0_jESaIS3_ENSt8__detail10_Select1stESt8equal_toIS0_ESt4hashIS0_ENS5_18_Mod_range_hashingENS5_20_Default_ranged_hashENS5_20_Prime_rehash_policyENS5_17_Hashtable_traitsILb0ELb0ELb1EEEE12_Scoped_nodeD2Ev.exit20.i.i70: ; preds = %.loopexit.i.i69
  %394 = landingpad { i8*, i32 }
          cleanup
  br label %common.resume

_ZNSt13unordered_mapIPdjSt4hashIS0_ESt8equal_toIS0_ESaISt4pairIKS0_jEEEixERS6_.exit74.loopexit: ; preds = %375
  %395 = bitcast %"struct.std::__detail::_Hash_node_base"* %378 to %"struct.std::__detail::_Hash_node.210"*
  br label %_ZNSt13unordered_mapIPdjSt4hashIS0_ESt8equal_toIS0_ESaISt4pairIKS0_jEEEixERS6_.exit74

_ZNSt13unordered_mapIPdjSt4hashIS0_ESt8equal_toIS0_ESaISt4pairIKS0_jEEEixERS6_.exit74: ; preds = %_ZNSt13unordered_mapIPdjSt4hashIS0_ESt8equal_toIS0_ESaISt4pairIKS0_jEEEixERS6_.exit74.loopexit, %.loopexit.i.i69._ZNSt13unordered_mapIPdjSt4hashIS0_ESt8equal_toIS0_ESaISt4pairIKS0_jEEEixERS6_.exit74_crit_edge, %368
  %396 = phi %struct.UpdateOptData* [ %359, %368 ], [ %.pre153, %.loopexit.i.i69._ZNSt13unordered_mapIPdjSt4hashIS0_ESt8equal_toIS0_ESaISt4pairIKS0_jEEEixERS6_.exit74_crit_edge ], [ %359, %_ZNSt13unordered_mapIPdjSt4hashIS0_ESt8equal_toIS0_ESaISt4pairIKS0_jEEEixERS6_.exit74.loopexit ]
  %.0.i.pn.i.i72 = phi %"struct.std::__detail::_Hash_node.210"* [ %370, %368 ], [ %393, %.loopexit.i.i69._ZNSt13unordered_mapIPdjSt4hashIS0_ESt8equal_toIS0_ESaISt4pairIKS0_jEEEixERS6_.exit74_crit_edge ], [ %395, %_ZNSt13unordered_mapIPdjSt4hashIS0_ESt8equal_toIS0_ESaISt4pairIKS0_jEEEixERS6_.exit74.loopexit ]
  %.0.i.i73 = getelementptr inbounds %"struct.std::__detail::_Hash_node.210", %"struct.std::__detail::_Hash_node.210"* %.0.i.pn.i.i72, i64 0, i32 1, i32 0, i32 0, i32 0, i32 0, i64 8
  %397 = bitcast i8* %.0.i.i73 to i32*
  %398 = load i32, i32* %397, align 4
  %399 = zext i32 %398 to i64
  %400 = getelementptr inbounds %struct.UpdateOptData, %struct.UpdateOptData* %359, i64 0, i32 5, i32 0, i32 0, i32 0, i32 0
  %401 = load %"class.std::vector"*, %"class.std::vector"** %400, align 8
  %402 = getelementptr inbounds %"class.std::vector", %"class.std::vector"* %401, i64 %399, i32 0, i32 0, i32 0, i32 0
  %403 = getelementptr inbounds %"class.std::vector", %"class.std::vector"* %401, i64 %399, i32 0, i32 0, i32 0, i32 1
  %404 = bitcast double** %402 to <2 x double*>*
  %405 = load <2 x double*>, <2 x double*>* %404, align 8
  %406 = getelementptr inbounds %"class.std::vector", %"class.std::vector"* %401, i64 %399, i32 0, i32 0, i32 0, i32 2
  %407 = load double*, double** %406, align 8
  %408 = getelementptr inbounds %struct.UpdateOptData, %struct.UpdateOptData* %396, i64 0, i32 7, i32 0, i32 0, i32 0, i32 0
  %409 = load double*, double** %408, align 8
  store double* %409, double** %402, align 8
  %410 = getelementptr inbounds %struct.UpdateOptData, %struct.UpdateOptData* %396, i64 0, i32 7, i32 0, i32 0, i32 0, i32 1
  %411 = load double*, double** %410, align 8
  store double* %411, double** %403, align 8
  %412 = getelementptr inbounds %struct.UpdateOptData, %struct.UpdateOptData* %396, i64 0, i32 7, i32 0, i32 0, i32 0, i32 2
  %413 = load double*, double** %412, align 8
  store double* %413, double** %406, align 8
  %414 = bitcast double** %408 to <2 x double*>*
  store <2 x double*> %405, <2 x double*>* %414, align 8
  store double* %407, double** %412, align 8
  %415 = load i32, i32* %78, align 4
  %416 = zext i32 %415 to i64
  %417 = load %"class.std::vector"*, %"class.std::vector"** getelementptr inbounds (%"class.std::vector.59", %"class.std::vector.59"* @EPM, i64 0, i32 0, i32 0, i32 0, i32 0), align 8
  %418 = getelementptr inbounds %"class.std::vector", %"class.std::vector"* %417, i64 %416, i32 0, i32 0, i32 0, i32 0
  %419 = getelementptr inbounds %"class.std::vector", %"class.std::vector"* %417, i64 %416, i32 0, i32 0, i32 0, i32 1
  %420 = bitcast double** %418 to <2 x double*>*
  %421 = load <2 x double*>, <2 x double*>* %420, align 8
  %422 = getelementptr inbounds %"class.std::vector", %"class.std::vector"* %417, i64 %416, i32 0, i32 0, i32 0, i32 2
  %423 = load double*, double** %422, align 8
  %424 = load double*, double** getelementptr inbounds (%"class.std::vector", %"class.std::vector"* @new_row, i64 0, i32 0, i32 0, i32 0, i32 0), align 16
  store double* %424, double** %418, align 8
  %425 = load double*, double** getelementptr inbounds (%"class.std::vector", %"class.std::vector"* @new_row, i64 0, i32 0, i32 0, i32 0, i32 1), align 8
  store double* %425, double** %419, align 8
  %426 = load double*, double** getelementptr inbounds (%"class.std::vector", %"class.std::vector"* @new_row, i64 0, i32 0, i32 0, i32 0, i32 2), align 16
  store double* %426, double** %422, align 8
  store <2 x double*> %421, <2 x double*>* bitcast (%"class.std::vector"* @new_row to <2 x double*>*), align 16
  store double* %423, double** getelementptr inbounds (%"class.std::vector", %"class.std::vector"* @new_row, i64 0, i32 0, i32 0, i32 0, i32 2), align 16
  %427 = fpext float %2 to double
  %428 = fsub double %1, %427
  %429 = load i32, i32* %78, align 4
  %430 = zext i32 %429 to i64
  %431 = load %"class.std::vector"*, %"class.std::vector"** getelementptr inbounds (%"class.std::vector.59", %"class.std::vector.59"* @EPM, i64 0, i32 0, i32 0, i32 0, i32 0), align 8
  %432 = getelementptr inbounds %"struct.std::__detail::_Hash_node", %"struct.std::__detail::_Hash_node"* %.0.i.pn.i.i, i64 0, i32 1, i32 0, i32 0, i32 0, i32 0, i64 12
  %433 = bitcast i8* %432 to i32*
  %434 = load i32, i32* %433, align 4
  %435 = zext i32 %434 to i64
  %436 = getelementptr inbounds %"class.std::vector", %"class.std::vector"* %431, i64 %430, i32 0, i32 0, i32 0, i32 0
  %437 = load double*, double** %436, align 8
  %438 = getelementptr inbounds double, double* %437, i64 %435
  %439 = load double, double* %438, align 8
  %440 = fadd double %428, %439
  store double %440, double* %438, align 8
  call void @llvm.va_end(i8* nonnull %30)
  br label %_ZNSt13unordered_mapIPdSt4pairIjjESt4hashIS0_ESt8equal_toIS0_ESaIS1_IKS0_S2_EEE4findERS7_.exit.thread

_ZNSt13unordered_mapIPdSt4pairIjjESt4hashIS0_ESt8equal_toIS0_ESaIS1_IKS0_S2_EEE4findERS7_.exit.thread: ; preds = %24, %.lr.ph.i.i.i.i, %4, %_ZNSt13unordered_mapIPdjSt4hashIS0_ESt8equal_toIS0_ESaISt4pairIKS0_jEEEixERS6_.exit74
  ret void
}

; Function Attrs: uwtable
define dso_local void @saesp_analysis_dotproduct(double* %0, double %1, float %2, i32 %3, ...) local_unnamed_addr #7 personality i32 (...)* @__gxx_personality_v0 {
  %5 = alloca [1 x %struct.__va_list_tag], align 16
  %6 = ptrtoint double* %0 to i64
  %7 = load i64, i64* getelementptr inbounds (%"class.std::unordered_map.84", %"class.std::unordered_map.84"* @ptrToEPMidx, i64 0, i32 0, i32 1), align 8
  %8 = urem i64 %6, %7
  %9 = load %"struct.std::__detail::_Hash_node_base"**, %"struct.std::__detail::_Hash_node_base"*** getelementptr inbounds (%"class.std::unordered_map.84", %"class.std::unordered_map.84"* @ptrToEPMidx, i64 0, i32 0, i32 0), align 8
  %10 = getelementptr inbounds %"struct.std::__detail::_Hash_node_base"*, %"struct.std::__detail::_Hash_node_base"** %9, i64 %8
  %11 = load %"struct.std::__detail::_Hash_node_base"*, %"struct.std::__detail::_Hash_node_base"** %10, align 8
  %.not.i.i.i.i = icmp eq %"struct.std::__detail::_Hash_node_base"* %11, null
  br i1 %.not.i.i.i.i, label %_ZNSt13unordered_mapIPdSt4pairIjjESt4hashIS0_ESt8equal_toIS0_ESaIS1_IKS0_S2_EEE4findERS7_.exit.thread, label %12

12:                                               ; preds = %4
  %13 = bitcast %"struct.std::__detail::_Hash_node_base"* %11 to %"struct.std::__detail::_Hash_node"**
  %14 = load %"struct.std::__detail::_Hash_node"*, %"struct.std::__detail::_Hash_node"** %13, align 8
  %15 = getelementptr inbounds %"struct.std::__detail::_Hash_node", %"struct.std::__detail::_Hash_node"* %14, i64 0, i32 1, i32 0, i32 0, i32 0, i32 0, i64 0
  %16 = bitcast i8* %15 to double**
  %17 = load double*, double** %16, align 8
  %18 = icmp eq double* %17, %0
  br i1 %18, label %_ZNSt13unordered_mapIPdSt4pairIjjESt4hashIS0_ESt8equal_toIS0_ESaIS1_IKS0_S2_EEE4findERS7_.exit, label %.lr.ph.i.i.i.i

19:                                               ; preds = %24
  %20 = icmp eq double* %27, %0
  br i1 %20, label %_ZNSt13unordered_mapIPdSt4pairIjjESt4hashIS0_ESt8equal_toIS0_ESaIS1_IKS0_S2_EEE4findERS7_.exit, label %.lr.ph.i.i.i.i, !llvm.loop !11

.lr.ph.i.i.i.i:                                   ; preds = %12, %19
  %.018.i.i.i.i = phi %"struct.std::__detail::_Hash_node"* [ %23, %19 ], [ %14, %12 ]
  %21 = getelementptr inbounds %"struct.std::__detail::_Hash_node", %"struct.std::__detail::_Hash_node"* %.018.i.i.i.i, i64 0, i32 0, i32 0
  %22 = load %"struct.std::__detail::_Hash_node_base"*, %"struct.std::__detail::_Hash_node_base"** %21, align 8
  %.not16.i.i.i.i = icmp eq %"struct.std::__detail::_Hash_node_base"* %22, null
  %23 = bitcast %"struct.std::__detail::_Hash_node_base"* %22 to %"struct.std::__detail::_Hash_node"*
  br i1 %.not16.i.i.i.i, label %_ZNSt13unordered_mapIPdSt4pairIjjESt4hashIS0_ESt8equal_toIS0_ESaIS1_IKS0_S2_EEE4findERS7_.exit.thread, label %24

24:                                               ; preds = %.lr.ph.i.i.i.i
  %25 = getelementptr inbounds %"struct.std::__detail::_Hash_node_base", %"struct.std::__detail::_Hash_node_base"* %22, i64 1
  %26 = bitcast %"struct.std::__detail::_Hash_node_base"* %25 to double**
  %27 = load double*, double** %26, align 8
  %28 = ptrtoint double* %27 to i64
  %29 = urem i64 %28, %7
  %.not17.i.i.i.i = icmp eq i64 %29, %8
  br i1 %.not17.i.i.i.i, label %19, label %_ZNSt13unordered_mapIPdSt4pairIjjESt4hashIS0_ESt8equal_toIS0_ESaIS1_IKS0_S2_EEE4findERS7_.exit.thread, !llvm.loop !11

_ZNSt13unordered_mapIPdSt4pairIjjESt4hashIS0_ESt8equal_toIS0_ESaIS1_IKS0_S2_EEE4findERS7_.exit: ; preds = %19, %12
  %30 = bitcast [1 x %struct.__va_list_tag]* %5 to i8*
  call void @llvm.va_start(i8* nonnull %30)
  %31 = load i64, i64* getelementptr inbounds (%"class.std::unordered_map.84", %"class.std::unordered_map.84"* @ptrToEPMidx, i64 0, i32 0, i32 1), align 8
  %32 = urem i64 %6, %31
  %33 = load %"struct.std::__detail::_Hash_node_base"**, %"struct.std::__detail::_Hash_node_base"*** getelementptr inbounds (%"class.std::unordered_map.84", %"class.std::unordered_map.84"* @ptrToEPMidx, i64 0, i32 0, i32 0), align 8
  %34 = getelementptr inbounds %"struct.std::__detail::_Hash_node_base"*, %"struct.std::__detail::_Hash_node_base"** %33, i64 %32
  %35 = load %"struct.std::__detail::_Hash_node_base"*, %"struct.std::__detail::_Hash_node_base"** %34, align 8
  %.not.i.i.i.i17 = icmp eq %"struct.std::__detail::_Hash_node_base"* %35, null
  br i1 %.not.i.i.i.i17, label %.loopexit.i.i, label %36

36:                                               ; preds = %_ZNSt13unordered_mapIPdSt4pairIjjESt4hashIS0_ESt8equal_toIS0_ESaIS1_IKS0_S2_EEE4findERS7_.exit
  %37 = bitcast %"struct.std::__detail::_Hash_node_base"* %35 to %"struct.std::__detail::_Hash_node"**
  %38 = load %"struct.std::__detail::_Hash_node"*, %"struct.std::__detail::_Hash_node"** %37, align 8
  %39 = getelementptr inbounds %"struct.std::__detail::_Hash_node", %"struct.std::__detail::_Hash_node"* %38, i64 0, i32 1, i32 0, i32 0, i32 0, i32 0, i64 0
  %40 = bitcast i8* %39 to double**
  %41 = load double*, double** %40, align 8
  %42 = icmp eq double* %41, %0
  br i1 %42, label %_ZNSt13unordered_mapIPdSt4pairIjjESt4hashIS0_ESt8equal_toIS0_ESaIS1_IKS0_S2_EEEixERS7_.exit, label %.lr.ph.i.i.i.i20

43:                                               ; preds = %48
  %44 = icmp eq double* %51, %0
  br i1 %44, label %_ZNSt13unordered_mapIPdSt4pairIjjESt4hashIS0_ESt8equal_toIS0_ESaIS1_IKS0_S2_EEEixERS7_.exit.loopexit, label %.lr.ph.i.i.i.i20, !llvm.loop !11

.lr.ph.i.i.i.i20:                                 ; preds = %36, %43
  %.018.i.i.i.i18 = phi %"struct.std::__detail::_Hash_node"* [ %47, %43 ], [ %38, %36 ]
  %45 = getelementptr inbounds %"struct.std::__detail::_Hash_node", %"struct.std::__detail::_Hash_node"* %.018.i.i.i.i18, i64 0, i32 0, i32 0
  %46 = load %"struct.std::__detail::_Hash_node_base"*, %"struct.std::__detail::_Hash_node_base"** %45, align 8
  %.not16.i.i.i.i19 = icmp eq %"struct.std::__detail::_Hash_node_base"* %46, null
  %47 = bitcast %"struct.std::__detail::_Hash_node_base"* %46 to %"struct.std::__detail::_Hash_node"*
  br i1 %.not16.i.i.i.i19, label %.loopexit.i.i, label %48

48:                                               ; preds = %.lr.ph.i.i.i.i20
  %49 = getelementptr inbounds %"struct.std::__detail::_Hash_node_base", %"struct.std::__detail::_Hash_node_base"* %46, i64 1
  %50 = bitcast %"struct.std::__detail::_Hash_node_base"* %49 to double**
  %51 = load double*, double** %50, align 8
  %52 = ptrtoint double* %51 to i64
  %53 = urem i64 %52, %31
  %.not17.i.i.i.i21 = icmp eq i64 %53, %32
  br i1 %.not17.i.i.i.i21, label %43, label %.loopexit.i.i, !llvm.loop !11

.loopexit.i.i:                                    ; preds = %48, %.lr.ph.i.i.i.i20, %_ZNSt13unordered_mapIPdSt4pairIjjESt4hashIS0_ESt8equal_toIS0_ESaIS1_IKS0_S2_EEE4findERS7_.exit
  %54 = call noalias nonnull i8* @_Znwm(i64 24) #24
  %55 = bitcast i8* %54 to %"struct.std::__detail::_Hash_node_base"**
  store %"struct.std::__detail::_Hash_node_base"* null, %"struct.std::__detail::_Hash_node_base"** %55, align 8
  %56 = getelementptr inbounds i8, i8* %54, i64 8
  %57 = bitcast i8* %56 to double**
  store double* %0, double** %57, align 8
  %58 = getelementptr inbounds i8, i8* %54, i64 16
  %59 = bitcast i8* %58 to i32*
  store i32 0, i32* %59, align 8
  %60 = getelementptr inbounds i8, i8* %54, i64 20
  %61 = bitcast i8* %60 to i32*
  store i32 0, i32* %61, align 4
  %62 = bitcast i8* %54 to %"struct.std::__detail::_Hash_node"*
  %63 = invoke %"struct.std::__detail::_Hash_node"* @_ZNSt10_HashtableIPdSt4pairIKS0_S1_IjjEESaIS4_ENSt8__detail10_Select1stESt8equal_toIS0_ESt4hashIS0_ENS6_18_Mod_range_hashingENS6_20_Default_ranged_hashENS6_20_Prime_rehash_policyENS6_17_Hashtable_traitsILb0ELb0ELb1EEEE21_M_insert_unique_nodeEmmPNS6_10_Hash_nodeIS4_Lb0EEEm(%"class.std::_Hashtable.85"* nonnull align 8 dereferenceable(56) getelementptr inbounds (%"class.std::unordered_map.84", %"class.std::unordered_map.84"* @ptrToEPMidx, i64 0, i32 0), i64 %32, i64 %6, %"struct.std::__detail::_Hash_node"* nonnull %62, i64 1)
          to label %_ZNSt13unordered_mapIPdSt4pairIjjESt4hashIS0_ESt8equal_toIS0_ESaIS1_IKS0_S2_EEEixERS7_.exit unwind label %_ZNSt10_HashtableIPdSt4pairIKS0_S1_IjjEESaIS4_ENSt8__detail10_Select1stESt8equal_toIS0_ESt4hashIS0_ENS6_18_Mod_range_hashingENS6_20_Default_ranged_hashENS6_20_Prime_rehash_policyENS6_17_Hashtable_traitsILb0ELb0ELb1EEEE12_Scoped_nodeD2Ev.exit20.i.i

common.resume:                                    ; preds = %_ZNSt10_HashtableIPdSt4pairIKS0_S1_IjjEESaIS4_ENSt8__detail10_Select1stESt8equal_toIS0_ESt4hashIS0_ENS6_18_Mod_range_hashingENS6_20_Default_ranged_hashENS6_20_Prime_rehash_policyENS6_17_Hashtable_traitsILb0ELb0ELb1EEEE12_Scoped_nodeD2Ev.exit20.i.i36, %_ZNSt10_HashtableIPdSt4pairIKS0_S1_IjjEESaIS4_ENSt8__detail10_Select1stESt8equal_toIS0_ESt4hashIS0_ENS6_18_Mod_range_hashingENS6_20_Default_ranged_hashENS6_20_Prime_rehash_policyENS6_17_Hashtable_traitsILb0ELb0ELb1EEEE12_Scoped_nodeD2Ev.exit20.i.i
  %.lcssa.sink = phi i8* [ %134, %_ZNSt10_HashtableIPdSt4pairIKS0_S1_IjjEESaIS4_ENSt8__detail10_Select1stESt8equal_toIS0_ESt4hashIS0_ENS6_18_Mod_range_hashingENS6_20_Default_ranged_hashENS6_20_Prime_rehash_policyENS6_17_Hashtable_traitsILb0ELb0ELb1EEEE12_Scoped_nodeD2Ev.exit20.i.i36 ], [ %54, %_ZNSt10_HashtableIPdSt4pairIKS0_S1_IjjEESaIS4_ENSt8__detail10_Select1stESt8equal_toIS0_ESt4hashIS0_ENS6_18_Mod_range_hashingENS6_20_Default_ranged_hashENS6_20_Prime_rehash_policyENS6_17_Hashtable_traitsILb0ELb0ELb1EEEE12_Scoped_nodeD2Ev.exit20.i.i ]
  %common.resume.op = phi { i8*, i32 } [ %144, %_ZNSt10_HashtableIPdSt4pairIKS0_S1_IjjEESaIS4_ENSt8__detail10_Select1stESt8equal_toIS0_ESt4hashIS0_ENS6_18_Mod_range_hashingENS6_20_Default_ranged_hashENS6_20_Prime_rehash_policyENS6_17_Hashtable_traitsILb0ELb0ELb1EEEE12_Scoped_nodeD2Ev.exit20.i.i36 ], [ %64, %_ZNSt10_HashtableIPdSt4pairIKS0_S1_IjjEESaIS4_ENSt8__detail10_Select1stESt8equal_toIS0_ESt4hashIS0_ENS6_18_Mod_range_hashingENS6_20_Default_ranged_hashENS6_20_Prime_rehash_policyENS6_17_Hashtable_traitsILb0ELb0ELb1EEEE12_Scoped_nodeD2Ev.exit20.i.i ]
  call void @_ZdlPv(i8* nonnull %.lcssa.sink) #23
  resume { i8*, i32 } %common.resume.op

_ZNSt10_HashtableIPdSt4pairIKS0_S1_IjjEESaIS4_ENSt8__detail10_Select1stESt8equal_toIS0_ESt4hashIS0_ENS6_18_Mod_range_hashingENS6_20_Default_ranged_hashENS6_20_Prime_rehash_policyENS6_17_Hashtable_traitsILb0ELb0ELb1EEEE12_Scoped_nodeD2Ev.exit20.i.i: ; preds = %.loopexit.i.i
  %64 = landingpad { i8*, i32 }
          cleanup
  br label %common.resume

_ZNSt13unordered_mapIPdSt4pairIjjESt4hashIS0_ESt8equal_toIS0_ESaIS1_IKS0_S2_EEEixERS7_.exit.loopexit: ; preds = %43
  %65 = bitcast %"struct.std::__detail::_Hash_node_base"* %46 to %"struct.std::__detail::_Hash_node"*
  br label %_ZNSt13unordered_mapIPdSt4pairIjjESt4hashIS0_ESt8equal_toIS0_ESaIS1_IKS0_S2_EEEixERS7_.exit

_ZNSt13unordered_mapIPdSt4pairIjjESt4hashIS0_ESt8equal_toIS0_ESaIS1_IKS0_S2_EEEixERS7_.exit: ; preds = %_ZNSt13unordered_mapIPdSt4pairIjjESt4hashIS0_ESt8equal_toIS0_ESaIS1_IKS0_S2_EEEixERS7_.exit.loopexit, %36, %.loopexit.i.i
  %.0.i.pn.i.i = phi %"struct.std::__detail::_Hash_node"* [ %38, %36 ], [ %63, %.loopexit.i.i ], [ %65, %_ZNSt13unordered_mapIPdSt4pairIjjESt4hashIS0_ESt8equal_toIS0_ESaIS1_IKS0_S2_EEEixERS7_.exit.loopexit ]
  %.0.i.i = getelementptr inbounds %"struct.std::__detail::_Hash_node", %"struct.std::__detail::_Hash_node"* %.0.i.pn.i.i, i64 0, i32 1, i32 0, i32 0, i32 0, i32 0, i64 8
  %66 = getelementptr inbounds [1 x %struct.__va_list_tag], [1 x %struct.__va_list_tag]* %5, i64 0, i64 0, i32 0
  %67 = getelementptr inbounds [1 x %struct.__va_list_tag], [1 x %struct.__va_list_tag]* %5, i64 0, i64 0, i32 2
  %68 = getelementptr inbounds [1 x %struct.__va_list_tag], [1 x %struct.__va_list_tag]* %5, i64 0, i64 0, i32 3
  %69 = getelementptr inbounds [1 x %struct.__va_list_tag], [1 x %struct.__va_list_tag]* %5, i64 0, i64 0, i32 1
  %70 = bitcast i8* %.0.i.i to i32*
  %.not64 = icmp eq i32 %3, 0
  br i1 %.not64, label %._crit_edge, label %.lr.ph63

.lr.ph63:                                         ; preds = %_ZNSt13unordered_mapIPdSt4pairIjjESt4hashIS0_ESt8equal_toIS0_ESaIS1_IKS0_S2_EEEixERS7_.exit, %_ZNSt13unordered_mapIPdSt4pairIjjESt4hashIS0_ESt8equal_toIS0_ESaIS1_IKS0_S2_EEE4findERS7_.exit29.thread
  %.01362 = phi i32 [ %166, %_ZNSt13unordered_mapIPdSt4pairIjjESt4hashIS0_ESt8equal_toIS0_ESaIS1_IKS0_S2_EEE4findERS7_.exit29.thread ], [ 0, %_ZNSt13unordered_mapIPdSt4pairIjjESt4hashIS0_ESt8equal_toIS0_ESaIS1_IKS0_S2_EEEixERS7_.exit ]
  %71 = load i32, i32* %66, align 16
  %72 = icmp ult i32 %71, 41
  br i1 %72, label %73, label %78

73:                                               ; preds = %.lr.ph63
  %74 = load i8*, i8** %68, align 16
  %75 = zext i32 %71 to i64
  %76 = getelementptr i8, i8* %74, i64 %75
  %77 = add nuw nsw i32 %71, 8
  store i32 %77, i32* %66, align 16
  br label %81

78:                                               ; preds = %.lr.ph63
  %79 = load i8*, i8** %67, align 8
  %80 = getelementptr i8, i8* %79, i64 8
  store i8* %80, i8** %67, align 8
  br label %81

81:                                               ; preds = %78, %73
  %.in = phi i8* [ %76, %73 ], [ %79, %78 ]
  %82 = bitcast i8* %.in to double**
  %83 = load double*, double** %82, align 8
  %84 = load i32, i32* %69, align 4
  %85 = icmp ult i32 %84, 161
  br i1 %85, label %86, label %91

86:                                               ; preds = %81
  %87 = load i8*, i8** %68, align 16
  %88 = zext i32 %84 to i64
  %89 = getelementptr i8, i8* %87, i64 %88
  %90 = add nuw nsw i32 %84, 16
  store i32 %90, i32* %69, align 4
  br label %94

91:                                               ; preds = %81
  %92 = load i8*, i8** %67, align 8
  %93 = getelementptr i8, i8* %92, i64 8
  store i8* %93, i8** %67, align 8
  br label %94

94:                                               ; preds = %91, %86
  %.in16 = phi i8* [ %89, %86 ], [ %92, %91 ]
  %95 = bitcast i8* %.in16 to double*
  %96 = load double, double* %95, align 8
  %97 = ptrtoint double* %83 to i64
  %98 = load i64, i64* getelementptr inbounds (%"class.std::unordered_map.84", %"class.std::unordered_map.84"* @ptrToEPMidx, i64 0, i32 0, i32 1), align 8
  %99 = urem i64 %97, %98
  %100 = load %"struct.std::__detail::_Hash_node_base"**, %"struct.std::__detail::_Hash_node_base"*** getelementptr inbounds (%"class.std::unordered_map.84", %"class.std::unordered_map.84"* @ptrToEPMidx, i64 0, i32 0, i32 0), align 8
  %101 = getelementptr inbounds %"struct.std::__detail::_Hash_node_base"*, %"struct.std::__detail::_Hash_node_base"** %100, i64 %99
  %102 = load %"struct.std::__detail::_Hash_node_base"*, %"struct.std::__detail::_Hash_node_base"** %101, align 8
  %.not.i.i.i.i22 = icmp eq %"struct.std::__detail::_Hash_node_base"* %102, null
  br i1 %.not.i.i.i.i22, label %_ZNSt13unordered_mapIPdSt4pairIjjESt4hashIS0_ESt8equal_toIS0_ESaIS1_IKS0_S2_EEE4findERS7_.exit29.thread, label %103

103:                                              ; preds = %94
  %104 = bitcast %"struct.std::__detail::_Hash_node_base"* %102 to %"struct.std::__detail::_Hash_node"**
  %105 = load %"struct.std::__detail::_Hash_node"*, %"struct.std::__detail::_Hash_node"** %104, align 8
  %106 = getelementptr inbounds %"struct.std::__detail::_Hash_node", %"struct.std::__detail::_Hash_node"* %105, i64 0, i32 1, i32 0, i32 0, i32 0, i32 0, i64 0
  %107 = bitcast i8* %106 to double**
  %108 = load double*, double** %107, align 8
  %109 = icmp eq double* %83, %108
  br i1 %109, label %_ZNSt13unordered_mapIPdSt4pairIjjESt4hashIS0_ESt8equal_toIS0_ESaIS1_IKS0_S2_EEE4findERS7_.exit29.thread52, label %.lr.ph.i.i.i.i25

110:                                              ; preds = %115
  %111 = icmp eq double* %83, %118
  br i1 %111, label %_ZNSt13unordered_mapIPdSt4pairIjjESt4hashIS0_ESt8equal_toIS0_ESaIS1_IKS0_S2_EEE4findERS7_.exit29, label %.lr.ph.i.i.i.i25, !llvm.loop !11

.lr.ph.i.i.i.i25:                                 ; preds = %103, %110
  %.018.i.i.i.i23 = phi %"struct.std::__detail::_Hash_node"* [ %114, %110 ], [ %105, %103 ]
  %112 = getelementptr inbounds %"struct.std::__detail::_Hash_node", %"struct.std::__detail::_Hash_node"* %.018.i.i.i.i23, i64 0, i32 0, i32 0
  %113 = load %"struct.std::__detail::_Hash_node_base"*, %"struct.std::__detail::_Hash_node_base"** %112, align 8
  %.not16.i.i.i.i24 = icmp eq %"struct.std::__detail::_Hash_node_base"* %113, null
  %114 = bitcast %"struct.std::__detail::_Hash_node_base"* %113 to %"struct.std::__detail::_Hash_node"*
  br i1 %.not16.i.i.i.i24, label %_ZNSt13unordered_mapIPdSt4pairIjjESt4hashIS0_ESt8equal_toIS0_ESaIS1_IKS0_S2_EEE4findERS7_.exit29.thread, label %115

115:                                              ; preds = %.lr.ph.i.i.i.i25
  %116 = getelementptr inbounds %"struct.std::__detail::_Hash_node_base", %"struct.std::__detail::_Hash_node_base"* %113, i64 1
  %117 = bitcast %"struct.std::__detail::_Hash_node_base"* %116 to double**
  %118 = load double*, double** %117, align 8
  %119 = ptrtoint double* %118 to i64
  %120 = urem i64 %119, %98
  %.not17.i.i.i.i26 = icmp eq i64 %120, %99
  br i1 %.not17.i.i.i.i26, label %110, label %_ZNSt13unordered_mapIPdSt4pairIjjESt4hashIS0_ESt8equal_toIS0_ESaIS1_IKS0_S2_EEE4findERS7_.exit29.thread, !llvm.loop !11

_ZNSt13unordered_mapIPdSt4pairIjjESt4hashIS0_ESt8equal_toIS0_ESaIS1_IKS0_S2_EEE4findERS7_.exit29: ; preds = %110
  %121 = load double*, double** @reductVar, align 8
  %.not = icmp eq double* %83, %121
  br i1 %.not, label %_ZNSt13unordered_mapIPdSt4pairIjjESt4hashIS0_ESt8equal_toIS0_ESaIS1_IKS0_S2_EEE4findERS7_.exit29.thread, label %.thread

_ZNSt13unordered_mapIPdSt4pairIjjESt4hashIS0_ESt8equal_toIS0_ESaIS1_IKS0_S2_EEE4findERS7_.exit29.thread52: ; preds = %103
  %122 = load double*, double** @reductVar, align 8
  %.not54 = icmp eq double* %83, %122
  br i1 %.not54, label %_ZNSt13unordered_mapIPdSt4pairIjjESt4hashIS0_ESt8equal_toIS0_ESaIS1_IKS0_S2_EEE4findERS7_.exit29.thread, label %_ZNSt13unordered_mapIPdSt4pairIjjESt4hashIS0_ESt8equal_toIS0_ESaIS1_IKS0_S2_EEEixERS7_.exit40

.thread:                                          ; preds = %_ZNSt13unordered_mapIPdSt4pairIjjESt4hashIS0_ESt8equal_toIS0_ESaIS1_IKS0_S2_EEE4findERS7_.exit29
  br i1 %109, label %_ZNSt13unordered_mapIPdSt4pairIjjESt4hashIS0_ESt8equal_toIS0_ESaIS1_IKS0_S2_EEEixERS7_.exit40, label %.lr.ph.i.i.i.i33

123:                                              ; preds = %128
  %124 = icmp eq double* %83, %131
  br i1 %124, label %_ZNSt13unordered_mapIPdSt4pairIjjESt4hashIS0_ESt8equal_toIS0_ESaIS1_IKS0_S2_EEEixERS7_.exit40.loopexit, label %.lr.ph.i.i.i.i33, !llvm.loop !11

.lr.ph.i.i.i.i33:                                 ; preds = %.thread, %123
  %.018.i.i.i.i31 = phi %"struct.std::__detail::_Hash_node"* [ %127, %123 ], [ %105, %.thread ]
  %125 = getelementptr inbounds %"struct.std::__detail::_Hash_node", %"struct.std::__detail::_Hash_node"* %.018.i.i.i.i31, i64 0, i32 0, i32 0
  %126 = load %"struct.std::__detail::_Hash_node_base"*, %"struct.std::__detail::_Hash_node_base"** %125, align 8
  %.not16.i.i.i.i32 = icmp eq %"struct.std::__detail::_Hash_node_base"* %126, null
  %127 = bitcast %"struct.std::__detail::_Hash_node_base"* %126 to %"struct.std::__detail::_Hash_node"*
  br i1 %.not16.i.i.i.i32, label %.loopexit.i.i35, label %128

128:                                              ; preds = %.lr.ph.i.i.i.i33
  %129 = getelementptr inbounds %"struct.std::__detail::_Hash_node_base", %"struct.std::__detail::_Hash_node_base"* %126, i64 1
  %130 = bitcast %"struct.std::__detail::_Hash_node_base"* %129 to double**
  %131 = load double*, double** %130, align 8
  %132 = ptrtoint double* %131 to i64
  %133 = urem i64 %132, %98
  %.not17.i.i.i.i34 = icmp eq i64 %133, %99
  br i1 %.not17.i.i.i.i34, label %123, label %.loopexit.i.i35, !llvm.loop !11

.loopexit.i.i35:                                  ; preds = %128, %.lr.ph.i.i.i.i33
  %134 = call noalias nonnull i8* @_Znwm(i64 24) #24
  %135 = bitcast i8* %134 to %"struct.std::__detail::_Hash_node_base"**
  store %"struct.std::__detail::_Hash_node_base"* null, %"struct.std::__detail::_Hash_node_base"** %135, align 8
  %136 = getelementptr inbounds i8, i8* %134, i64 8
  %137 = bitcast i8* %136 to double**
  store double* %83, double** %137, align 8
  %138 = getelementptr inbounds i8, i8* %134, i64 16
  %139 = bitcast i8* %138 to i32*
  store i32 0, i32* %139, align 8
  %140 = getelementptr inbounds i8, i8* %134, i64 20
  %141 = bitcast i8* %140 to i32*
  store i32 0, i32* %141, align 4
  %142 = bitcast i8* %134 to %"struct.std::__detail::_Hash_node"*
  %143 = invoke %"struct.std::__detail::_Hash_node"* @_ZNSt10_HashtableIPdSt4pairIKS0_S1_IjjEESaIS4_ENSt8__detail10_Select1stESt8equal_toIS0_ESt4hashIS0_ENS6_18_Mod_range_hashingENS6_20_Default_ranged_hashENS6_20_Prime_rehash_policyENS6_17_Hashtable_traitsILb0ELb0ELb1EEEE21_M_insert_unique_nodeEmmPNS6_10_Hash_nodeIS4_Lb0EEEm(%"class.std::_Hashtable.85"* nonnull align 8 dereferenceable(56) getelementptr inbounds (%"class.std::unordered_map.84", %"class.std::unordered_map.84"* @ptrToEPMidx, i64 0, i32 0), i64 %99, i64 %97, %"struct.std::__detail::_Hash_node"* nonnull %142, i64 1)
          to label %_ZNSt13unordered_mapIPdSt4pairIjjESt4hashIS0_ESt8equal_toIS0_ESaIS1_IKS0_S2_EEEixERS7_.exit40 unwind label %_ZNSt10_HashtableIPdSt4pairIKS0_S1_IjjEESaIS4_ENSt8__detail10_Select1stESt8equal_toIS0_ESt4hashIS0_ENS6_18_Mod_range_hashingENS6_20_Default_ranged_hashENS6_20_Prime_rehash_policyENS6_17_Hashtable_traitsILb0ELb0ELb1EEEE12_Scoped_nodeD2Ev.exit20.i.i36

_ZNSt10_HashtableIPdSt4pairIKS0_S1_IjjEESaIS4_ENSt8__detail10_Select1stESt8equal_toIS0_ESt4hashIS0_ENS6_18_Mod_range_hashingENS6_20_Default_ranged_hashENS6_20_Prime_rehash_policyENS6_17_Hashtable_traitsILb0ELb0ELb1EEEE12_Scoped_nodeD2Ev.exit20.i.i36: ; preds = %.loopexit.i.i35
  %144 = landingpad { i8*, i32 }
          cleanup
  br label %common.resume

_ZNSt13unordered_mapIPdSt4pairIjjESt4hashIS0_ESt8equal_toIS0_ESaIS1_IKS0_S2_EEEixERS7_.exit40.loopexit: ; preds = %123
  %145 = bitcast %"struct.std::__detail::_Hash_node_base"* %126 to %"struct.std::__detail::_Hash_node"*
  br label %_ZNSt13unordered_mapIPdSt4pairIjjESt4hashIS0_ESt8equal_toIS0_ESaIS1_IKS0_S2_EEEixERS7_.exit40

_ZNSt13unordered_mapIPdSt4pairIjjESt4hashIS0_ESt8equal_toIS0_ESaIS1_IKS0_S2_EEEixERS7_.exit40: ; preds = %_ZNSt13unordered_mapIPdSt4pairIjjESt4hashIS0_ESt8equal_toIS0_ESaIS1_IKS0_S2_EEEixERS7_.exit40.loopexit, %_ZNSt13unordered_mapIPdSt4pairIjjESt4hashIS0_ESt8equal_toIS0_ESaIS1_IKS0_S2_EEE4findERS7_.exit29.thread52, %.thread, %.loopexit.i.i35
  %.0.i.pn.i.i38 = phi %"struct.std::__detail::_Hash_node"* [ %105, %.thread ], [ %143, %.loopexit.i.i35 ], [ %105, %_ZNSt13unordered_mapIPdSt4pairIjjESt4hashIS0_ESt8equal_toIS0_ESaIS1_IKS0_S2_EEE4findERS7_.exit29.thread52 ], [ %145, %_ZNSt13unordered_mapIPdSt4pairIjjESt4hashIS0_ESt8equal_toIS0_ESaIS1_IKS0_S2_EEEixERS7_.exit40.loopexit ]
  %.0.i.i39 = getelementptr inbounds %"struct.std::__detail::_Hash_node", %"struct.std::__detail::_Hash_node"* %.0.i.pn.i.i38, i64 0, i32 1, i32 0, i32 0, i32 0, i32 0, i64 8
  %146 = bitcast i8* %.0.i.i39 to i32*
  %147 = load i32, i32* @col_size, align 4
  %.not65 = icmp eq i32 %147, 0
  br i1 %.not65, label %_ZNSt13unordered_mapIPdSt4pairIjjESt4hashIS0_ESt8equal_toIS0_ESaIS1_IKS0_S2_EEE4findERS7_.exit29.thread, label %.lr.ph

.lr.ph:                                           ; preds = %_ZNSt13unordered_mapIPdSt4pairIjjESt4hashIS0_ESt8equal_toIS0_ESaIS1_IKS0_S2_EEEixERS7_.exit40, %.lr.ph
  %indvars.iv = phi i64 [ %indvars.iv.next, %.lr.ph ], [ 0, %_ZNSt13unordered_mapIPdSt4pairIjjESt4hashIS0_ESt8equal_toIS0_ESaIS1_IKS0_S2_EEEixERS7_.exit40 ]
  %148 = load i32, i32* %146, align 4
  %149 = zext i32 %148 to i64
  %150 = load %"class.std::vector"*, %"class.std::vector"** getelementptr inbounds (%"class.std::vector.59", %"class.std::vector.59"* @EPM, i64 0, i32 0, i32 0, i32 0, i32 0), align 8
  %151 = getelementptr inbounds %"class.std::vector", %"class.std::vector"* %150, i64 %149, i32 0, i32 0, i32 0, i32 0
  %152 = load double*, double** %151, align 8
  %153 = getelementptr inbounds double, double* %152, i64 %indvars.iv
  %154 = load double, double* %153, align 8
  %155 = fmul double %96, %154
  %156 = load i32, i32* %70, align 4
  %157 = zext i32 %156 to i64
  %158 = getelementptr inbounds %"class.std::vector", %"class.std::vector"* %150, i64 %157, i32 0, i32 0, i32 0, i32 0
  %159 = load double*, double** %158, align 8
  %160 = getelementptr inbounds double, double* %159, i64 %indvars.iv
  %161 = load double, double* %160, align 8
  %162 = fadd double %155, %161
  store double %162, double* %160, align 8
  %indvars.iv.next = add nuw nsw i64 %indvars.iv, 1
  %163 = load i32, i32* @col_size, align 4
  %164 = zext i32 %163 to i64
  %165 = icmp ult i64 %indvars.iv.next, %164
  br i1 %165, label %.lr.ph, label %_ZNSt13unordered_mapIPdSt4pairIjjESt4hashIS0_ESt8equal_toIS0_ESaIS1_IKS0_S2_EEE4findERS7_.exit29.thread, !llvm.loop !19

_ZNSt13unordered_mapIPdSt4pairIjjESt4hashIS0_ESt8equal_toIS0_ESaIS1_IKS0_S2_EEE4findERS7_.exit29.thread: ; preds = %115, %.lr.ph.i.i.i.i25, %.lr.ph, %_ZNSt13unordered_mapIPdSt4pairIjjESt4hashIS0_ESt8equal_toIS0_ESaIS1_IKS0_S2_EEEixERS7_.exit40, %94, %_ZNSt13unordered_mapIPdSt4pairIjjESt4hashIS0_ESt8equal_toIS0_ESaIS1_IKS0_S2_EEE4findERS7_.exit29.thread52, %_ZNSt13unordered_mapIPdSt4pairIjjESt4hashIS0_ESt8equal_toIS0_ESaIS1_IKS0_S2_EEE4findERS7_.exit29
  %166 = add nuw nsw i32 %.01362, 2
  %167 = icmp ult i32 %166, %3
  br i1 %167, label %.lr.ph63, label %._crit_edge, !llvm.loop !20

._crit_edge:                                      ; preds = %_ZNSt13unordered_mapIPdSt4pairIjjESt4hashIS0_ESt8equal_toIS0_ESaIS1_IKS0_S2_EEE4findERS7_.exit29.thread, %_ZNSt13unordered_mapIPdSt4pairIjjESt4hashIS0_ESt8equal_toIS0_ESaIS1_IKS0_S2_EEEixERS7_.exit
  %168 = fpext float %2 to double
  %169 = fsub double %1, %168
  %170 = load i32, i32* %70, align 4
  %171 = zext i32 %170 to i64
  %172 = load %"class.std::vector"*, %"class.std::vector"** getelementptr inbounds (%"class.std::vector.59", %"class.std::vector.59"* @EPM, i64 0, i32 0, i32 0, i32 0, i32 0), align 8
  %173 = getelementptr inbounds %"struct.std::__detail::_Hash_node", %"struct.std::__detail::_Hash_node"* %.0.i.pn.i.i, i64 0, i32 1, i32 0, i32 0, i32 0, i32 0, i64 12
  %174 = bitcast i8* %173 to i32*
  %175 = load i32, i32* %174, align 4
  %176 = zext i32 %175 to i64
  %177 = getelementptr inbounds %"class.std::vector", %"class.std::vector"* %172, i64 %171, i32 0, i32 0, i32 0, i32 0
  %178 = load double*, double** %177, align 8
  %179 = getelementptr inbounds double, double* %178, i64 %176
  %180 = load double, double* %179, align 8
  %181 = fadd double %169, %180
  store double %181, double* %179, align 8
  call void @llvm.va_end(i8* nonnull %30)
  br label %_ZNSt13unordered_mapIPdSt4pairIjjESt4hashIS0_ESt8equal_toIS0_ESaIS1_IKS0_S2_EEE4findERS7_.exit.thread

_ZNSt13unordered_mapIPdSt4pairIjjESt4hashIS0_ESt8equal_toIS0_ESaIS1_IKS0_S2_EEE4findERS7_.exit.thread: ; preds = %24, %.lr.ph.i.i.i.i, %4, %._crit_edge
  ret void
}

; Function Attrs: uwtable
define dso_local void @saesp_collect_row(double* %0) local_unnamed_addr #7 personality i32 (...)* @__gxx_personality_v0 {
  %2 = ptrtoint double* %0 to i64
  %3 = load i64, i64* getelementptr inbounds (%"class.std::unordered_map.84", %"class.std::unordered_map.84"* @ptrToEPMidx, i64 0, i32 0, i32 1), align 8
  %4 = urem i64 %2, %3
  %5 = load %"struct.std::__detail::_Hash_node_base"**, %"struct.std::__detail::_Hash_node_base"*** getelementptr inbounds (%"class.std::unordered_map.84", %"class.std::unordered_map.84"* @ptrToEPMidx, i64 0, i32 0, i32 0), align 8
  %6 = getelementptr inbounds %"struct.std::__detail::_Hash_node_base"*, %"struct.std::__detail::_Hash_node_base"** %5, i64 %4
  %7 = load %"struct.std::__detail::_Hash_node_base"*, %"struct.std::__detail::_Hash_node_base"** %6, align 8
  %.not.i.i.i.i = icmp eq %"struct.std::__detail::_Hash_node_base"* %7, null
  br i1 %.not.i.i.i.i, label %_ZNSt13unordered_mapIPdSt4pairIjjESt4hashIS0_ESt8equal_toIS0_ESaIS1_IKS0_S2_EEE4findERS7_.exit.thread, label %8

8:                                                ; preds = %1
  %9 = bitcast %"struct.std::__detail::_Hash_node_base"* %7 to %"struct.std::__detail::_Hash_node"**
  %10 = load %"struct.std::__detail::_Hash_node"*, %"struct.std::__detail::_Hash_node"** %9, align 8
  %11 = getelementptr inbounds %"struct.std::__detail::_Hash_node", %"struct.std::__detail::_Hash_node"* %10, i64 0, i32 1, i32 0, i32 0, i32 0, i32 0, i64 0
  %12 = bitcast i8* %11 to double**
  %13 = load double*, double** %12, align 8
  %14 = icmp eq double* %13, %0
  br i1 %14, label %_ZNSt13unordered_mapIPdSt4pairIjjESt4hashIS0_ESt8equal_toIS0_ESaIS1_IKS0_S2_EEEixERS7_.exit, label %.lr.ph.i.i.i.i

15:                                               ; preds = %20
  %16 = icmp eq double* %23, %0
  br i1 %16, label %_ZNSt13unordered_mapIPdSt4pairIjjESt4hashIS0_ESt8equal_toIS0_ESaIS1_IKS0_S2_EEE4findERS7_.exit.thread17, label %.lr.ph.i.i.i.i, !llvm.loop !11

.lr.ph.i.i.i.i:                                   ; preds = %8, %15
  %.018.i.i.i.i = phi %"struct.std::__detail::_Hash_node"* [ %19, %15 ], [ %10, %8 ]
  %17 = getelementptr inbounds %"struct.std::__detail::_Hash_node", %"struct.std::__detail::_Hash_node"* %.018.i.i.i.i, i64 0, i32 0, i32 0
  %18 = load %"struct.std::__detail::_Hash_node_base"*, %"struct.std::__detail::_Hash_node_base"** %17, align 8
  %.not16.i.i.i.i = icmp eq %"struct.std::__detail::_Hash_node_base"* %18, null
  %19 = bitcast %"struct.std::__detail::_Hash_node_base"* %18 to %"struct.std::__detail::_Hash_node"*
  br i1 %.not16.i.i.i.i, label %_ZNSt13unordered_mapIPdSt4pairIjjESt4hashIS0_ESt8equal_toIS0_ESaIS1_IKS0_S2_EEE4findERS7_.exit.thread, label %20

20:                                               ; preds = %.lr.ph.i.i.i.i
  %21 = getelementptr inbounds %"struct.std::__detail::_Hash_node_base", %"struct.std::__detail::_Hash_node_base"* %18, i64 1
  %22 = bitcast %"struct.std::__detail::_Hash_node_base"* %21 to double**
  %23 = load double*, double** %22, align 8
  %24 = ptrtoint double* %23 to i64
  %25 = urem i64 %24, %3
  %.not17.i.i.i.i = icmp eq i64 %25, %4
  br i1 %.not17.i.i.i.i, label %15, label %_ZNSt13unordered_mapIPdSt4pairIjjESt4hashIS0_ESt8equal_toIS0_ESaIS1_IKS0_S2_EEE4findERS7_.exit.thread, !llvm.loop !11

_ZNSt13unordered_mapIPdSt4pairIjjESt4hashIS0_ESt8equal_toIS0_ESaIS1_IKS0_S2_EEE4findERS7_.exit.thread17: ; preds = %15
  br i1 %14, label %_ZNSt13unordered_mapIPdSt4pairIjjESt4hashIS0_ESt8equal_toIS0_ESaIS1_IKS0_S2_EEEixERS7_.exit, label %.lr.ph.i.i.i.i6

26:                                               ; preds = %31
  %27 = icmp eq double* %34, %0
  br i1 %27, label %_ZNSt13unordered_mapIPdSt4pairIjjESt4hashIS0_ESt8equal_toIS0_ESaIS1_IKS0_S2_EEEixERS7_.exit.loopexit, label %.lr.ph.i.i.i.i6, !llvm.loop !11

.lr.ph.i.i.i.i6:                                  ; preds = %_ZNSt13unordered_mapIPdSt4pairIjjESt4hashIS0_ESt8equal_toIS0_ESaIS1_IKS0_S2_EEE4findERS7_.exit.thread17, %26
  %.018.i.i.i.i4 = phi %"struct.std::__detail::_Hash_node"* [ %30, %26 ], [ %10, %_ZNSt13unordered_mapIPdSt4pairIjjESt4hashIS0_ESt8equal_toIS0_ESaIS1_IKS0_S2_EEE4findERS7_.exit.thread17 ]
  %28 = getelementptr inbounds %"struct.std::__detail::_Hash_node", %"struct.std::__detail::_Hash_node"* %.018.i.i.i.i4, i64 0, i32 0, i32 0
  %29 = load %"struct.std::__detail::_Hash_node_base"*, %"struct.std::__detail::_Hash_node_base"** %28, align 8
  %.not16.i.i.i.i5 = icmp eq %"struct.std::__detail::_Hash_node_base"* %29, null
  %30 = bitcast %"struct.std::__detail::_Hash_node_base"* %29 to %"struct.std::__detail::_Hash_node"*
  br i1 %.not16.i.i.i.i5, label %.loopexit.i.i, label %31

31:                                               ; preds = %.lr.ph.i.i.i.i6
  %32 = getelementptr inbounds %"struct.std::__detail::_Hash_node_base", %"struct.std::__detail::_Hash_node_base"* %29, i64 1
  %33 = bitcast %"struct.std::__detail::_Hash_node_base"* %32 to double**
  %34 = load double*, double** %33, align 8
  %35 = ptrtoint double* %34 to i64
  %36 = urem i64 %35, %3
  %.not17.i.i.i.i7 = icmp eq i64 %36, %4
  br i1 %.not17.i.i.i.i7, label %26, label %.loopexit.i.i, !llvm.loop !11

.loopexit.i.i:                                    ; preds = %31, %.lr.ph.i.i.i.i6
  %37 = tail call noalias nonnull i8* @_Znwm(i64 24) #24
  %38 = bitcast i8* %37 to %"struct.std::__detail::_Hash_node_base"**
  store %"struct.std::__detail::_Hash_node_base"* null, %"struct.std::__detail::_Hash_node_base"** %38, align 8
  %39 = getelementptr inbounds i8, i8* %37, i64 8
  %40 = bitcast i8* %39 to double**
  store double* %0, double** %40, align 8
  %41 = getelementptr inbounds i8, i8* %37, i64 16
  %42 = bitcast i8* %41 to i32*
  store i32 0, i32* %42, align 8
  %43 = getelementptr inbounds i8, i8* %37, i64 20
  %44 = bitcast i8* %43 to i32*
  store i32 0, i32* %44, align 4
  %45 = bitcast i8* %37 to %"struct.std::__detail::_Hash_node"*
  %46 = invoke %"struct.std::__detail::_Hash_node"* @_ZNSt10_HashtableIPdSt4pairIKS0_S1_IjjEESaIS4_ENSt8__detail10_Select1stESt8equal_toIS0_ESt4hashIS0_ENS6_18_Mod_range_hashingENS6_20_Default_ranged_hashENS6_20_Prime_rehash_policyENS6_17_Hashtable_traitsILb0ELb0ELb1EEEE21_M_insert_unique_nodeEmmPNS6_10_Hash_nodeIS4_Lb0EEEm(%"class.std::_Hashtable.85"* nonnull align 8 dereferenceable(56) getelementptr inbounds (%"class.std::unordered_map.84", %"class.std::unordered_map.84"* @ptrToEPMidx, i64 0, i32 0), i64 %4, i64 %2, %"struct.std::__detail::_Hash_node"* nonnull %45, i64 1)
          to label %_ZNSt13unordered_mapIPdSt4pairIjjESt4hashIS0_ESt8equal_toIS0_ESaIS1_IKS0_S2_EEEixERS7_.exit unwind label %_ZNSt10_HashtableIPdSt4pairIKS0_S1_IjjEESaIS4_ENSt8__detail10_Select1stESt8equal_toIS0_ESt4hashIS0_ENS6_18_Mod_range_hashingENS6_20_Default_ranged_hashENS6_20_Prime_rehash_policyENS6_17_Hashtable_traitsILb0ELb0ELb1EEEE12_Scoped_nodeD2Ev.exit20.i.i

_ZNSt10_HashtableIPdSt4pairIKS0_S1_IjjEESaIS4_ENSt8__detail10_Select1stESt8equal_toIS0_ESt4hashIS0_ENS6_18_Mod_range_hashingENS6_20_Default_ranged_hashENS6_20_Prime_rehash_policyENS6_17_Hashtable_traitsILb0ELb0ELb1EEEE12_Scoped_nodeD2Ev.exit20.i.i: ; preds = %.loopexit.i.i
  %47 = landingpad { i8*, i32 }
          cleanup
  tail call void @_ZdlPv(i8* nonnull %37) #23
  resume { i8*, i32 } %47

_ZNSt13unordered_mapIPdSt4pairIjjESt4hashIS0_ESt8equal_toIS0_ESaIS1_IKS0_S2_EEEixERS7_.exit.loopexit: ; preds = %26
  %48 = bitcast %"struct.std::__detail::_Hash_node_base"* %29 to %"struct.std::__detail::_Hash_node"*
  br label %_ZNSt13unordered_mapIPdSt4pairIjjESt4hashIS0_ESt8equal_toIS0_ESaIS1_IKS0_S2_EEEixERS7_.exit

_ZNSt13unordered_mapIPdSt4pairIjjESt4hashIS0_ESt8equal_toIS0_ESaIS1_IKS0_S2_EEEixERS7_.exit: ; preds = %_ZNSt13unordered_mapIPdSt4pairIjjESt4hashIS0_ESt8equal_toIS0_ESaIS1_IKS0_S2_EEEixERS7_.exit.loopexit, %8, %_ZNSt13unordered_mapIPdSt4pairIjjESt4hashIS0_ESt8equal_toIS0_ESaIS1_IKS0_S2_EEE4findERS7_.exit.thread17, %.loopexit.i.i
  %.0.i.pn.i.i = phi %"struct.std::__detail::_Hash_node"* [ %10, %_ZNSt13unordered_mapIPdSt4pairIjjESt4hashIS0_ESt8equal_toIS0_ESaIS1_IKS0_S2_EEE4findERS7_.exit.thread17 ], [ %46, %.loopexit.i.i ], [ %10, %8 ], [ %48, %_ZNSt13unordered_mapIPdSt4pairIjjESt4hashIS0_ESt8equal_toIS0_ESaIS1_IKS0_S2_EEEixERS7_.exit.loopexit ]
  %.0.i.i = getelementptr inbounds %"struct.std::__detail::_Hash_node", %"struct.std::__detail::_Hash_node"* %.0.i.pn.i.i, i64 0, i32 1, i32 0, i32 0, i32 0, i32 0, i64 8
  %49 = bitcast i8* %.0.i.i to i32*
  %50 = load i32, i32* %49, align 4
  %51 = zext i32 %50 to i64
  %52 = load %"class.std::vector"*, %"class.std::vector"** getelementptr inbounds (%"class.std::vector.59", %"class.std::vector.59"* @EPM, i64 0, i32 0, i32 0, i32 0, i32 0), align 8
  %53 = getelementptr inbounds %"class.std::vector", %"class.std::vector"* %52, i64 %51
  %54 = tail call nonnull align 8 dereferenceable(24) %"class.std::vector"* @_ZNSt13unordered_mapIjSt6vectorIdSaIdEESt4hashIjESt8equal_toIjESaISt4pairIKjS2_EEEixERS8_(%"class.std::unordered_map.98"* nonnull align 8 dereferenceable(56) @rowPassMap, i32* nonnull align 4 dereferenceable(4) @arg_id)
  %55 = tail call nonnull align 8 dereferenceable(24) %"class.std::vector"* @_ZNSt6vectorIdSaIdEEaSERKS1_(%"class.std::vector"* nonnull align 8 dereferenceable(24) %54, %"class.std::vector"* nonnull align 8 dereferenceable(24) %53)
  %56 = tail call nonnull align 8 dereferenceable(24) %"class.std::vector"* @_ZNSt13unordered_mapIjSt6vectorIdSaIdEESt4hashIjESt8equal_toIjESaISt4pairIKjS2_EEEixERS8_(%"class.std::unordered_map.98"* nonnull align 8 dereferenceable(56) @rowPassMap, i32* nonnull align 4 dereferenceable(4) @arg_id)
  %57 = getelementptr inbounds %"class.std::vector", %"class.std::vector"* %56, i64 0, i32 0, i32 0, i32 0, i32 0
  %58 = load double*, double** %57, align 8
  %59 = getelementptr inbounds %"class.std::vector", %"class.std::vector"* %56, i64 0, i32 0, i32 0, i32 0, i32 1
  %60 = load double*, double** %59, align 8
  %.not20 = icmp eq double* %58, %60
  br i1 %.not20, label %._crit_edge, label %.lr.ph

61:                                               ; preds = %.lr.ph
  %.not = icmp eq double* %65, %60
  br i1 %.not, label %._crit_edge, label %.lr.ph

.lr.ph:                                           ; preds = %_ZNSt13unordered_mapIPdSt4pairIjjESt4hashIS0_ESt8equal_toIS0_ESaIS1_IKS0_S2_EEEixERS7_.exit, %61
  %.sroa.08.021 = phi double* [ %65, %61 ], [ %58, %_ZNSt13unordered_mapIPdSt4pairIjjESt4hashIS0_ESt8equal_toIS0_ESaIS1_IKS0_S2_EEEixERS7_.exit ]
  %62 = load double, double* %.sroa.08.021, align 8
  %63 = tail call double @llvm.fabs.f64(double %62) #27
  %64 = fcmp oeq double %63, 0x7FF0000000000000
  %65 = getelementptr inbounds double, double* %.sroa.08.021, i64 1
  br i1 %64, label %66, label %61

66:                                               ; preds = %.lr.ph
  %67 = tail call nonnull align 8 dereferenceable(8) %"class.std::basic_ostream"* @_ZStlsISt11char_traitsIcEERSt13basic_ostreamIcT_ES5_PKc(%"class.std::basic_ostream"* nonnull align 8 dereferenceable(8) @_ZSt4cout, i8* getelementptr inbounds ([43 x i8], [43 x i8]* @.str, i64 0, i64 0))
  %68 = load i32, i32* @arg_id, align 4
  %69 = tail call nonnull align 8 dereferenceable(8) %"class.std::basic_ostream"* @_ZNSolsEj(%"class.std::basic_ostream"* nonnull align 8 dereferenceable(8) %67, i32 %68)
  %70 = tail call nonnull align 8 dereferenceable(8) %"class.std::basic_ostream"* @_ZStlsISt11char_traitsIcEERSt13basic_ostreamIcT_ES5_PKc(%"class.std::basic_ostream"* nonnull align 8 dereferenceable(8) %69, i8* getelementptr inbounds ([2 x i8], [2 x i8]* @.str.6, i64 0, i64 0))
  tail call void @SAESP_ShowErrorSourcesOfFP(double* %0)
  tail call void @exit(i32 -1) #15
  unreachable

._crit_edge:                                      ; preds = %61, %_ZNSt13unordered_mapIPdSt4pairIjjESt4hashIS0_ESt8equal_toIS0_ESaIS1_IKS0_S2_EEEixERS7_.exit
  %71 = load i32, i32* @arg_id, align 4
  %72 = add i32 %71, 1
  store i32 %72, i32* @arg_id, align 4
  br label %_ZNSt13unordered_mapIPdSt4pairIjjESt4hashIS0_ESt8equal_toIS0_ESaIS1_IKS0_S2_EEE4findERS7_.exit.thread

_ZNSt13unordered_mapIPdSt4pairIjjESt4hashIS0_ESt8equal_toIS0_ESaIS1_IKS0_S2_EEE4findERS7_.exit.thread: ; preds = %20, %.lr.ph.i.i.i.i, %1, %._crit_edge
  ret void
}

declare dso_local nonnull align 8 dereferenceable(8) %"class.std::basic_ostream"* @_ZStlsISt11char_traitsIcEERSt13basic_ostreamIcT_ES5_PKc(%"class.std::basic_ostream"* nonnull align 8 dereferenceable(8), i8*) local_unnamed_addr #0

declare dso_local nonnull align 8 dereferenceable(8) %"class.std::basic_ostream"* @_ZNSolsEj(%"class.std::basic_ostream"* nonnull align 8 dereferenceable(8), i32) local_unnamed_addr #0

; Function Attrs: uwtable
define dso_local void @SAESP_ShowErrorSourcesOfFP(double* %0) local_unnamed_addr #7 personality i8* bitcast (i32 (...)* @__gxx_personality_v0 to i8*) {
  %2 = alloca %"class.std::tuple", align 8
  %3 = alloca i64, align 8
  %4 = alloca %"class.std::vector.270", align 8
  %5 = alloca %"class.std::tuple", align 8
  %6 = alloca %"class.std::__cxx11::basic_string", align 8
  %7 = alloca i32, align 4
  %8 = alloca i32, align 4
  %9 = alloca %"class.std::__cxx11::basic_string", align 8
  %10 = ptrtoint double* %0 to i64
  %11 = load i64, i64* getelementptr inbounds (%"class.std::unordered_map.84", %"class.std::unordered_map.84"* @ptrToEPMidx, i64 0, i32 0, i32 1), align 8
  %12 = urem i64 %10, %11
  %13 = load %"struct.std::__detail::_Hash_node_base"**, %"struct.std::__detail::_Hash_node_base"*** getelementptr inbounds (%"class.std::unordered_map.84", %"class.std::unordered_map.84"* @ptrToEPMidx, i64 0, i32 0, i32 0), align 8
  %14 = getelementptr inbounds %"struct.std::__detail::_Hash_node_base"*, %"struct.std::__detail::_Hash_node_base"** %13, i64 %12
  %15 = load %"struct.std::__detail::_Hash_node_base"*, %"struct.std::__detail::_Hash_node_base"** %14, align 8
  %.not.i.i.i.i = icmp eq %"struct.std::__detail::_Hash_node_base"* %15, null
  br i1 %.not.i.i.i.i, label %.loopexit105, label %16

16:                                               ; preds = %1
  %17 = bitcast %"struct.std::__detail::_Hash_node_base"* %15 to %"struct.std::__detail::_Hash_node"**
  %18 = load %"struct.std::__detail::_Hash_node"*, %"struct.std::__detail::_Hash_node"** %17, align 8
  %19 = getelementptr inbounds %"struct.std::__detail::_Hash_node", %"struct.std::__detail::_Hash_node"* %18, i64 0, i32 1, i32 0, i32 0, i32 0, i32 0, i64 0
  %20 = bitcast i8* %19 to double**
  %21 = load double*, double** %20, align 8
  %22 = icmp eq double* %21, %0
  br i1 %22, label %_ZNSt13unordered_mapIPdSt4pairIjjESt4hashIS0_ESt8equal_toIS0_ESaIS1_IKS0_S2_EEEixERS7_.exit, label %.lr.ph.i.i.i.i

23:                                               ; preds = %28
  %24 = icmp eq double* %31, %0
  br i1 %24, label %_ZNSt13unordered_mapIPdSt4pairIjjESt4hashIS0_ESt8equal_toIS0_ESaIS1_IKS0_S2_EEE4findERS7_.exit.thread86, label %.lr.ph.i.i.i.i, !llvm.loop !11

.lr.ph.i.i.i.i:                                   ; preds = %16, %23
  %.018.i.i.i.i = phi %"struct.std::__detail::_Hash_node"* [ %27, %23 ], [ %18, %16 ]
  %25 = getelementptr inbounds %"struct.std::__detail::_Hash_node", %"struct.std::__detail::_Hash_node"* %.018.i.i.i.i, i64 0, i32 0, i32 0
  %26 = load %"struct.std::__detail::_Hash_node_base"*, %"struct.std::__detail::_Hash_node_base"** %25, align 8
  %.not16.i.i.i.i = icmp eq %"struct.std::__detail::_Hash_node_base"* %26, null
  %27 = bitcast %"struct.std::__detail::_Hash_node_base"* %26 to %"struct.std::__detail::_Hash_node"*
  br i1 %.not16.i.i.i.i, label %.loopexit105, label %28

28:                                               ; preds = %.lr.ph.i.i.i.i
  %29 = getelementptr inbounds %"struct.std::__detail::_Hash_node_base", %"struct.std::__detail::_Hash_node_base"* %26, i64 1
  %30 = bitcast %"struct.std::__detail::_Hash_node_base"* %29 to double**
  %31 = load double*, double** %30, align 8
  %32 = ptrtoint double* %31 to i64
  %33 = urem i64 %32, %11
  %.not17.i.i.i.i = icmp eq i64 %33, %12
  br i1 %.not17.i.i.i.i, label %23, label %.loopexit105, !llvm.loop !11

.loopexit105:                                     ; preds = %.lr.ph.i.i.i.i, %28, %1
  tail call void @__assert_fail(i8* getelementptr inbounds ([101 x i8], [101 x i8]* @.str.18, i64 0, i64 0), i8* getelementptr inbounds ([29 x i8], [29 x i8]* @.str.11, i64 0, i64 0), i32 951, i8* getelementptr inbounds ([42 x i8], [42 x i8]* @__PRETTY_FUNCTION__.SAESP_ShowErrorSourcesOfFP, i64 0, i64 0)) #15
  unreachable

_ZNSt13unordered_mapIPdSt4pairIjjESt4hashIS0_ESt8equal_toIS0_ESaIS1_IKS0_S2_EEE4findERS7_.exit.thread86: ; preds = %23
  br i1 %22, label %_ZNSt13unordered_mapIPdSt4pairIjjESt4hashIS0_ESt8equal_toIS0_ESaIS1_IKS0_S2_EEEixERS7_.exit, label %.lr.ph.i.i.i.i32

34:                                               ; preds = %39
  %35 = icmp eq double* %42, %0
  br i1 %35, label %_ZNSt13unordered_mapIPdSt4pairIjjESt4hashIS0_ESt8equal_toIS0_ESaIS1_IKS0_S2_EEEixERS7_.exit.loopexit, label %.lr.ph.i.i.i.i32, !llvm.loop !11

.lr.ph.i.i.i.i32:                                 ; preds = %_ZNSt13unordered_mapIPdSt4pairIjjESt4hashIS0_ESt8equal_toIS0_ESaIS1_IKS0_S2_EEE4findERS7_.exit.thread86, %34
  %.018.i.i.i.i30 = phi %"struct.std::__detail::_Hash_node"* [ %38, %34 ], [ %18, %_ZNSt13unordered_mapIPdSt4pairIjjESt4hashIS0_ESt8equal_toIS0_ESaIS1_IKS0_S2_EEE4findERS7_.exit.thread86 ]
  %36 = getelementptr inbounds %"struct.std::__detail::_Hash_node", %"struct.std::__detail::_Hash_node"* %.018.i.i.i.i30, i64 0, i32 0, i32 0
  %37 = load %"struct.std::__detail::_Hash_node_base"*, %"struct.std::__detail::_Hash_node_base"** %36, align 8
  %.not16.i.i.i.i31 = icmp eq %"struct.std::__detail::_Hash_node_base"* %37, null
  %38 = bitcast %"struct.std::__detail::_Hash_node_base"* %37 to %"struct.std::__detail::_Hash_node"*
  br i1 %.not16.i.i.i.i31, label %.loopexit.i.i, label %39

39:                                               ; preds = %.lr.ph.i.i.i.i32
  %40 = getelementptr inbounds %"struct.std::__detail::_Hash_node_base", %"struct.std::__detail::_Hash_node_base"* %37, i64 1
  %41 = bitcast %"struct.std::__detail::_Hash_node_base"* %40 to double**
  %42 = load double*, double** %41, align 8
  %43 = ptrtoint double* %42 to i64
  %44 = urem i64 %43, %11
  %.not17.i.i.i.i33 = icmp eq i64 %44, %12
  br i1 %.not17.i.i.i.i33, label %34, label %.loopexit.i.i, !llvm.loop !11

.loopexit.i.i:                                    ; preds = %39, %.lr.ph.i.i.i.i32
  %45 = tail call noalias nonnull i8* @_Znwm(i64 24) #24
  %46 = bitcast i8* %45 to %"struct.std::__detail::_Hash_node_base"**
  store %"struct.std::__detail::_Hash_node_base"* null, %"struct.std::__detail::_Hash_node_base"** %46, align 8
  %47 = getelementptr inbounds i8, i8* %45, i64 8
  %48 = bitcast i8* %47 to double**
  store double* %0, double** %48, align 8
  %49 = getelementptr inbounds i8, i8* %45, i64 16
  %50 = bitcast i8* %49 to i32*
  store i32 0, i32* %50, align 8
  %51 = getelementptr inbounds i8, i8* %45, i64 20
  %52 = bitcast i8* %51 to i32*
  store i32 0, i32* %52, align 4
  %53 = bitcast i8* %45 to %"struct.std::__detail::_Hash_node"*
  %54 = invoke %"struct.std::__detail::_Hash_node"* @_ZNSt10_HashtableIPdSt4pairIKS0_S1_IjjEESaIS4_ENSt8__detail10_Select1stESt8equal_toIS0_ESt4hashIS0_ENS6_18_Mod_range_hashingENS6_20_Default_ranged_hashENS6_20_Prime_rehash_policyENS6_17_Hashtable_traitsILb0ELb0ELb1EEEE21_M_insert_unique_nodeEmmPNS6_10_Hash_nodeIS4_Lb0EEEm(%"class.std::_Hashtable.85"* nonnull align 8 dereferenceable(56) getelementptr inbounds (%"class.std::unordered_map.84", %"class.std::unordered_map.84"* @ptrToEPMidx, i64 0, i32 0), i64 %12, i64 %10, %"struct.std::__detail::_Hash_node"* nonnull %53, i64 1)
          to label %_ZNSt13unordered_mapIPdSt4pairIjjESt4hashIS0_ESt8equal_toIS0_ESaIS1_IKS0_S2_EEEixERS7_.exit unwind label %_ZNSt10_HashtableIPdSt4pairIKS0_S1_IjjEESaIS4_ENSt8__detail10_Select1stESt8equal_toIS0_ESt4hashIS0_ENS6_18_Mod_range_hashingENS6_20_Default_ranged_hashENS6_20_Prime_rehash_policyENS6_17_Hashtable_traitsILb0ELb0ELb1EEEE12_Scoped_nodeD2Ev.exit20.i.i

common.resume:                                    ; preds = %.body, %_ZNSt10_HashtableIPdSt4pairIKS0_S1_IjjEESaIS4_ENSt8__detail10_Select1stESt8equal_toIS0_ESt4hashIS0_ENS6_18_Mod_range_hashingENS6_20_Default_ranged_hashENS6_20_Prime_rehash_policyENS6_17_Hashtable_traitsILb0ELb0ELb1EEEE12_Scoped_nodeD2Ev.exit20.i.i
  %common.resume.op = phi { i8*, i32 } [ %55, %_ZNSt10_HashtableIPdSt4pairIKS0_S1_IjjEESaIS4_ENSt8__detail10_Select1stESt8equal_toIS0_ESt4hashIS0_ENS6_18_Mod_range_hashingENS6_20_Default_ranged_hashENS6_20_Prime_rehash_policyENS6_17_Hashtable_traitsILb0ELb0ELb1EEEE12_Scoped_nodeD2Ev.exit20.i.i ], [ %.pn, %.body ]
  resume { i8*, i32 } %common.resume.op

_ZNSt10_HashtableIPdSt4pairIKS0_S1_IjjEESaIS4_ENSt8__detail10_Select1stESt8equal_toIS0_ESt4hashIS0_ENS6_18_Mod_range_hashingENS6_20_Default_ranged_hashENS6_20_Prime_rehash_policyENS6_17_Hashtable_traitsILb0ELb0ELb1EEEE12_Scoped_nodeD2Ev.exit20.i.i: ; preds = %.loopexit.i.i
  %55 = landingpad { i8*, i32 }
          cleanup
  tail call void @_ZdlPv(i8* nonnull %45) #23
  br label %common.resume

_ZNSt13unordered_mapIPdSt4pairIjjESt4hashIS0_ESt8equal_toIS0_ESaIS1_IKS0_S2_EEEixERS7_.exit.loopexit: ; preds = %34
  %56 = bitcast %"struct.std::__detail::_Hash_node_base"* %37 to %"struct.std::__detail::_Hash_node"*
  br label %_ZNSt13unordered_mapIPdSt4pairIjjESt4hashIS0_ESt8equal_toIS0_ESaIS1_IKS0_S2_EEEixERS7_.exit

_ZNSt13unordered_mapIPdSt4pairIjjESt4hashIS0_ESt8equal_toIS0_ESaIS1_IKS0_S2_EEEixERS7_.exit: ; preds = %_ZNSt13unordered_mapIPdSt4pairIjjESt4hashIS0_ESt8equal_toIS0_ESaIS1_IKS0_S2_EEEixERS7_.exit.loopexit, %16, %_ZNSt13unordered_mapIPdSt4pairIjjESt4hashIS0_ESt8equal_toIS0_ESaIS1_IKS0_S2_EEE4findERS7_.exit.thread86, %.loopexit.i.i
  %.0.i.pn.i.i = phi %"struct.std::__detail::_Hash_node"* [ %18, %_ZNSt13unordered_mapIPdSt4pairIjjESt4hashIS0_ESt8equal_toIS0_ESaIS1_IKS0_S2_EEE4findERS7_.exit.thread86 ], [ %54, %.loopexit.i.i ], [ %18, %16 ], [ %56, %_ZNSt13unordered_mapIPdSt4pairIjjESt4hashIS0_ESt8equal_toIS0_ESaIS1_IKS0_S2_EEEixERS7_.exit.loopexit ]
  %tmpcast89 = bitcast i64* %3 to %"struct.std::pair"*
  %.0.i.i = getelementptr inbounds %"struct.std::__detail::_Hash_node", %"struct.std::__detail::_Hash_node"* %.0.i.pn.i.i, i64 0, i32 1, i32 0, i32 0, i32 0, i32 0, i64 8
  %57 = bitcast i8* %.0.i.i to i64*
  %58 = load i64, i64* %57, align 4
  store i64 %58, i64* %3, align 8
  %59 = trunc i64 %58 to i32
  %60 = and i64 %58, 4294967295
  %61 = load i64, i64* getelementptr inbounds (%"class.std::unordered_map", %"class.std::unordered_map"* @reduced_errors, i64 0, i32 0, i32 1), align 8
  %62 = urem i64 %60, %61
  %63 = load %"struct.std::__detail::_Hash_node_base"**, %"struct.std::__detail::_Hash_node_base"*** getelementptr inbounds (%"class.std::unordered_map", %"class.std::unordered_map"* @reduced_errors, i64 0, i32 0, i32 0), align 8
  %64 = getelementptr inbounds %"struct.std::__detail::_Hash_node_base"*, %"struct.std::__detail::_Hash_node_base"** %63, i64 %62
  %65 = load %"struct.std::__detail::_Hash_node_base"*, %"struct.std::__detail::_Hash_node_base"** %64, align 8
  %.not.i.i.i.i.i = icmp eq %"struct.std::__detail::_Hash_node_base"* %65, null
  %66 = lshr i64 %58, 32
  %67 = trunc i64 %66 to i32
  br i1 %.not.i.i.i.i.i, label %.loopexit.i, label %68

68:                                               ; preds = %_ZNSt13unordered_mapIPdSt4pairIjjESt4hashIS0_ESt8equal_toIS0_ESaIS1_IKS0_S2_EEEixERS7_.exit
  %69 = bitcast %"struct.std::__detail::_Hash_node_base"* %65 to %"struct.std::__detail::_Hash_node.291"**
  %70 = load %"struct.std::__detail::_Hash_node.291"*, %"struct.std::__detail::_Hash_node.291"** %69, align 8
  %71 = getelementptr inbounds %"struct.std::__detail::_Hash_node.291", %"struct.std::__detail::_Hash_node.291"* %70, i64 0, i32 1, i32 0, i32 0, i32 0, i32 0, i64 0
  %72 = bitcast i8* %71 to i32*
  %73 = load i32, i32* %72, align 8
  %74 = icmp eq i32 %73, %59
  br i1 %74, label %_ZNSt13unordered_mapIjPSt6vectorIdSaIdEESt4hashIjESt8equal_toIjESaISt4pairIKjS3_EEE4findERS9_.exit.i, label %.lr.ph.i.i.i.i.i

75:                                               ; preds = %80
  %76 = icmp eq i32 %83, %59
  br i1 %76, label %_ZNSt13unordered_mapIjPSt6vectorIdSaIdEESt4hashIjESt8equal_toIjESaISt4pairIKjS3_EEE4findERS9_.exit.i.loopexit, label %.lr.ph.i.i.i.i.i, !llvm.loop !21

.lr.ph.i.i.i.i.i:                                 ; preds = %68, %75
  %.018.i.i.i.i.i = phi %"struct.std::__detail::_Hash_node.291"* [ %79, %75 ], [ %70, %68 ]
  %77 = getelementptr inbounds %"struct.std::__detail::_Hash_node.291", %"struct.std::__detail::_Hash_node.291"* %.018.i.i.i.i.i, i64 0, i32 0, i32 0
  %78 = load %"struct.std::__detail::_Hash_node_base"*, %"struct.std::__detail::_Hash_node_base"** %77, align 8
  %.not16.i.i.i.i.i = icmp eq %"struct.std::__detail::_Hash_node_base"* %78, null
  %79 = bitcast %"struct.std::__detail::_Hash_node_base"* %78 to %"struct.std::__detail::_Hash_node.291"*
  br i1 %.not16.i.i.i.i.i, label %.loopexit.i, label %80

80:                                               ; preds = %.lr.ph.i.i.i.i.i
  %81 = getelementptr inbounds %"struct.std::__detail::_Hash_node_base", %"struct.std::__detail::_Hash_node_base"* %78, i64 1
  %82 = bitcast %"struct.std::__detail::_Hash_node_base"* %81 to i32*
  %83 = load i32, i32* %82, align 8
  %84 = zext i32 %83 to i64
  %85 = urem i64 %84, %61
  %.not17.i.i.i.i.i = icmp eq i64 %85, %62
  br i1 %.not17.i.i.i.i.i, label %75, label %.loopexit.i, !llvm.loop !21

_ZNSt13unordered_mapIjPSt6vectorIdSaIdEESt4hashIjESt8equal_toIjESaISt4pairIKjS3_EEE4findERS9_.exit.i.loopexit: ; preds = %75
  %86 = bitcast %"struct.std::__detail::_Hash_node_base"* %78 to %"struct.std::__detail::_Hash_node.291"*
  br label %_ZNSt13unordered_mapIjPSt6vectorIdSaIdEESt4hashIjESt8equal_toIjESaISt4pairIKjS3_EEE4findERS9_.exit.i

_ZNSt13unordered_mapIjPSt6vectorIdSaIdEESt4hashIjESt8equal_toIjESaISt4pairIKjS3_EEE4findERS9_.exit.i: ; preds = %_ZNSt13unordered_mapIjPSt6vectorIdSaIdEESt4hashIjESt8equal_toIjESaISt4pairIKjS3_EEE4findERS9_.exit.i.loopexit, %68
  %.0.i.i.i.i = phi %"struct.std::__detail::_Hash_node.291"* [ %70, %68 ], [ %86, %_ZNSt13unordered_mapIjPSt6vectorIdSaIdEESt4hashIjESt8equal_toIjESaISt4pairIKjS3_EEE4findERS9_.exit.i.loopexit ]
  %87 = getelementptr inbounds %"struct.std::__detail::_Hash_node.291", %"struct.std::__detail::_Hash_node.291"* %.0.i.i.i.i, i64 0, i32 1, i32 0, i32 0, i32 0, i32 0, i64 8
  %88 = bitcast i8* %87 to %"class.std::vector"**
  %89 = load %"class.std::vector"*, %"class.std::vector"** %88, align 8
  br label %"_ZZ26SAESP_ShowErrorSourcesOfFPENK3$_0clEv.exit"

.loopexit.i:                                      ; preds = %80, %.lr.ph.i.i.i.i.i, %_ZNSt13unordered_mapIPdSt4pairIjjESt4hashIS0_ESt8equal_toIS0_ESaIS1_IKS0_S2_EEEixERS7_.exit
  %90 = load %"class.std::vector"*, %"class.std::vector"** getelementptr inbounds (%"class.std::vector.59", %"class.std::vector.59"* @EPM, i64 0, i32 0, i32 0, i32 0, i32 0), align 8
  %91 = getelementptr inbounds %"class.std::vector", %"class.std::vector"* %90, i64 %60
  br label %"_ZZ26SAESP_ShowErrorSourcesOfFPENK3$_0clEv.exit"

"_ZZ26SAESP_ShowErrorSourcesOfFPENK3$_0clEv.exit": ; preds = %_ZNSt13unordered_mapIjPSt6vectorIdSaIdEESt4hashIjESt8equal_toIjESaISt4pairIKjS3_EEE4findERS9_.exit.i, %.loopexit.i
  %.0.i = phi %"class.std::vector"* [ %89, %_ZNSt13unordered_mapIjPSt6vectorIdSaIdEESt4hashIjESt8equal_toIjESaISt4pairIKjS3_EEE4findERS9_.exit.i ], [ %91, %.loopexit.i ]
  %92 = bitcast %"class.std::vector.270"* %4 to i8*
  call void @llvm.memset.p0i8.i64(i8* noundef nonnull align 8 dereferenceable(24) %92, i8 0, i64 24, i1 false) #23
  %93 = getelementptr inbounds %"struct.std::pair", %"struct.std::pair"* %tmpcast89, i64 0, i32 1
  %94 = load i64, i64* getelementptr inbounds (%"class.std::unordered_map.174", %"class.std::unordered_map.174"* @_Z13colIdxToLabelB5cxx11, i64 0, i32 0, i32 1), align 8
  %95 = urem i64 %66, %94
  %96 = load %"struct.std::__detail::_Hash_node_base"**, %"struct.std::__detail::_Hash_node_base"*** getelementptr inbounds (%"class.std::unordered_map.174", %"class.std::unordered_map.174"* @_Z13colIdxToLabelB5cxx11, i64 0, i32 0, i32 0), align 8
  %97 = getelementptr inbounds %"struct.std::__detail::_Hash_node_base"*, %"struct.std::__detail::_Hash_node_base"** %96, i64 %95
  %98 = load %"struct.std::__detail::_Hash_node_base"*, %"struct.std::__detail::_Hash_node_base"** %97, align 8
  %.not.i.i.i.i34 = icmp eq %"struct.std::__detail::_Hash_node_base"* %98, null
  br i1 %.not.i.i.i.i34, label %.loopexit104, label %99

99:                                               ; preds = %"_ZZ26SAESP_ShowErrorSourcesOfFPENK3$_0clEv.exit"
  %100 = bitcast %"struct.std::__detail::_Hash_node_base"* %98 to %"struct.std::__detail::_Hash_node.280"**
  %101 = load %"struct.std::__detail::_Hash_node.280"*, %"struct.std::__detail::_Hash_node.280"** %100, align 8
  %102 = getelementptr inbounds %"struct.std::__detail::_Hash_node.280", %"struct.std::__detail::_Hash_node.280"* %101, i64 0, i32 1, i32 0, i32 0, i32 0, i32 0, i64 0
  %103 = bitcast i8* %102 to i32*
  %104 = load i32, i32* %103, align 8
  %105 = icmp eq i32 %104, %67
  br i1 %105, label %_ZNSt13unordered_mapIjSt4pairINSt7__cxx1112basic_stringIcSt11char_traitsIcESaIcEEES6_ESt4hashIjESt8equal_toIjESaIS0_IKjS7_EEE4findERSC_.exit, label %.lr.ph.i.i.i.i37

106:                                              ; preds = %111
  %107 = icmp eq i32 %114, %67
  br i1 %107, label %_ZNSt13unordered_mapIjSt4pairINSt7__cxx1112basic_stringIcSt11char_traitsIcESaIcEEES6_ESt4hashIjESt8equal_toIjESaIS0_IKjS7_EEE4findERSC_.exit, label %.lr.ph.i.i.i.i37, !llvm.loop !22

.lr.ph.i.i.i.i37:                                 ; preds = %99, %106
  %.018.i.i.i.i35 = phi %"struct.std::__detail::_Hash_node.280"* [ %110, %106 ], [ %101, %99 ]
  %108 = getelementptr inbounds %"struct.std::__detail::_Hash_node.280", %"struct.std::__detail::_Hash_node.280"* %.018.i.i.i.i35, i64 0, i32 0, i32 0
  %109 = load %"struct.std::__detail::_Hash_node_base"*, %"struct.std::__detail::_Hash_node_base"** %108, align 8
  %.not16.i.i.i.i36 = icmp eq %"struct.std::__detail::_Hash_node_base"* %109, null
  %110 = bitcast %"struct.std::__detail::_Hash_node_base"* %109 to %"struct.std::__detail::_Hash_node.280"*
  br i1 %.not16.i.i.i.i36, label %.loopexit104, label %111

111:                                              ; preds = %.lr.ph.i.i.i.i37
  %112 = getelementptr inbounds %"struct.std::__detail::_Hash_node_base", %"struct.std::__detail::_Hash_node_base"* %109, i64 1
  %113 = bitcast %"struct.std::__detail::_Hash_node_base"* %112 to i32*
  %114 = load i32, i32* %113, align 8
  %115 = zext i32 %114 to i64
  %116 = urem i64 %115, %94
  %.not17.i.i.i.i38 = icmp eq i64 %116, %95
  br i1 %.not17.i.i.i.i38, label %106, label %.loopexit104, !llvm.loop !22

_ZNSt13unordered_mapIjSt4pairINSt7__cxx1112basic_stringIcSt11char_traitsIcESaIcEEES6_ESt4hashIjESt8equal_toIjESaIS0_IKjS7_EEE4findERSC_.exit: ; preds = %106, %99
  %117 = getelementptr inbounds %"class.std::vector", %"class.std::vector"* %.0.i, i64 0, i32 0, i32 0, i32 0, i32 0
  %118 = getelementptr inbounds %"class.std::tuple", %"class.std::tuple"* %5, i64 0, i32 0, i32 0, i32 0, i32 0, i32 0
  %119 = getelementptr inbounds i8, i8* %118, i64 8
  %120 = bitcast i8* %119 to double*
  %121 = getelementptr inbounds i8, i8* %118, i64 16
  %122 = bitcast i8* %121 to %"class.std::__cxx11::basic_string"*
  %123 = getelementptr inbounds %"class.std::vector.270", %"class.std::vector.270"* %4, i64 0, i32 0, i32 0, i32 0, i32 1
  %124 = getelementptr inbounds %"class.std::vector.270", %"class.std::vector.270"* %4, i64 0, i32 0, i32 0, i32 0, i32 2
  %125 = bitcast i8* %119 to i64*
  %126 = load i32, i32* @col_size, align 4
  %.not126 = icmp eq i32 %126, 0
  br i1 %.not126, label %.loopexit98, label %.lr.ph.preheader

.lr.ph.preheader:                                 ; preds = %_ZNSt13unordered_mapIjSt4pairINSt7__cxx1112basic_stringIcSt11char_traitsIcESaIcEEES6_ESt4hashIjESt8equal_toIjESaIS0_IKjS7_EEE4findERSC_.exit
  %127 = load %"struct.std::__detail::_Hash_node_base"*, %"struct.std::__detail::_Hash_node_base"** %96, align 8
  %.not.i.i.i.i40149 = icmp eq %"struct.std::__detail::_Hash_node_base"* %127, null
  br i1 %.not.i.i.i.i40149, label %.loopexit99, label %.lr.ph151

.loopexit104:                                     ; preds = %.lr.ph.i.i.i.i37, %111, %"_ZZ26SAESP_ShowErrorSourcesOfFPENK3$_0clEv.exit"
  tail call void @__assert_fail(i8* getelementptr inbounds ([110 x i8], [110 x i8]* @.str.20, i64 0, i64 0), i8* getelementptr inbounds ([29 x i8], [29 x i8]* @.str.11, i64 0, i64 0), i32 962, i8* getelementptr inbounds ([42 x i8], [42 x i8]* @__PRETTY_FUNCTION__.SAESP_ShowErrorSourcesOfFP, i64 0, i64 0)) #15
  unreachable

.loopexit:                                        ; preds = %.lr.ph118, %286, %291, %295, %297, %302
  %lpad.loopexit = landingpad { i8*, i32 }
          cleanup
  br label %.body

